0000              1   ;--------------------------------------------------------
0000              2   ; File Created by C51
0000              3   ; Version 1.0.0 #1069 (Apr 23 2015) (MSVC)
0000              4   ; This file was generated Wed Feb 28 20:27:42 2018
0000              5   ;--------------------------------------------------------
                  5   $name hr_monitor
                  6   $optc51 --model-small
                  7   $printf_float
0000              9            R_DSEG    segment data
0000             10            R_CSEG    segment code
0000             11            R_BSEG    segment bit
0000             12            R_XSEG    segment xdata
0000             13            R_PSEG    segment xdata
0000             14            R_ISEG    segment idata
0000             15            R_OSEG    segment data overlay
0000             16            BIT_BANK  segment data overlay
0000             17            R_HOME    segment code
0000             18            R_GSINIT  segment code
0000             19            R_IXSEG   segment xdata
0000             20            R_CONST   segment code
0000             21            R_XINIT   segment code
0000             22            R_DINIT   segment code
0000             23   
0000             24   ;--------------------------------------------------------
0000             25   ; Public variables in this module
0000             26   ;--------------------------------------------------------
0000             27            public _main
0000             28            public _TIMER0_Init
0000             29            public _getsn
0000             30            public _LCDprint_inv
0000             31            public _LCDprint
0000             32            public _LCD_4BIT
0000             33            public _WriteCommand
0000             34            public _WriteData
0000             35            public _LCD_byte
0000             36            public _LCD_pulse
0000             37            public _waitms
0000             38            public _Timer3us
0000             39            public __c51_external_startup
0000             40            public _LCDprint_inv_PARM_3
0000             41            public _LCDprint_PARM_3
0000             42            public _getsn_PARM_2
0000             43            public _LCDprint_inv_PARM_2
0000             44            public _LCDprint_PARM_2
0000             45            public _overflow_count
0000             46   ;--------------------------------------------------------
0000             47   ; Special Function Registers
0000             48   ;--------------------------------------------------------
0000             49   _ACC            DATA 0xe0
0000             50   _ADC0ASAH       DATA 0xb6
0000             51   _ADC0ASAL       DATA 0xb5
0000             52   _ADC0ASCF       DATA 0xa1
0000             53   _ADC0ASCT       DATA 0xc7
0000             54   _ADC0CF0        DATA 0xbc
0000             55   _ADC0CF1        DATA 0xb9
0000             56   _ADC0CF2        DATA 0xdf
0000             57   _ADC0CN0        DATA 0xe8
0000             58   _ADC0CN1        DATA 0xb2
0000             59   _ADC0CN2        DATA 0xb3
0000             60   _ADC0GTH        DATA 0xc4
0000             61   _ADC0GTL        DATA 0xc3
0000             62   _ADC0H          DATA 0xbe
0000             63   _ADC0L          DATA 0xbd
0000             64   _ADC0LTH        DATA 0xc6
0000             65   _ADC0LTL        DATA 0xc5
0000             66   _ADC0MX         DATA 0xbb
0000             67   _B              DATA 0xf0
0000             68   _CKCON0         DATA 0x8e
0000             69   _CKCON1         DATA 0xa6
0000             70   _CLEN0          DATA 0xc6
0000             71   _CLIE0          DATA 0xc7
0000             72   _CLIF0          DATA 0xe8
0000             73   _CLKSEL         DATA 0xa9
0000             74   _CLOUT0         DATA 0xd1
0000             75   _CLU0CF         DATA 0xb1
0000             76   _CLU0FN         DATA 0xaf
0000             77   _CLU0MX         DATA 0x84
0000             78   _CLU1CF         DATA 0xb3
0000             79   _CLU1FN         DATA 0xb2
0000             80   _CLU1MX         DATA 0x85
0000             81   _CLU2CF         DATA 0xb6
0000             82   _CLU2FN         DATA 0xb5
0000             83   _CLU2MX         DATA 0x91
0000             84   _CLU3CF         DATA 0xbf
0000             85   _CLU3FN         DATA 0xbe
0000             86   _CLU3MX         DATA 0xae
0000             87   _CMP0CN0        DATA 0x9b
0000             88   _CMP0CN1        DATA 0x99
0000             89   _CMP0MD         DATA 0x9d
0000             90   _CMP0MX         DATA 0x9f
0000             91   _CMP1CN0        DATA 0xbf
0000             92   _CMP1CN1        DATA 0xac
0000             93   _CMP1MD         DATA 0xab
0000             94   _CMP1MX         DATA 0xaa
0000             95   _CRC0CN0        DATA 0xce
0000             96   _CRC0CN1        DATA 0x86
0000             97   _CRC0CNT        DATA 0xd3
0000             98   _CRC0DAT        DATA 0xcb
0000             99   _CRC0FLIP       DATA 0xcf
0000            100   _CRC0IN         DATA 0xca
0000            101   _CRC0ST         DATA 0xd2
0000            102   _DAC0CF0        DATA 0x91
0000            103   _DAC0CF1        DATA 0x92
0000            104   _DAC0H          DATA 0x85
0000            105   _DAC0L          DATA 0x84
0000            106   _DAC1CF0        DATA 0x93
0000            107   _DAC1CF1        DATA 0x94
0000            108   _DAC1H          DATA 0x8a
0000            109   _DAC1L          DATA 0x89
0000            110   _DAC2CF0        DATA 0x95
0000            111   _DAC2CF1        DATA 0x96
0000            112   _DAC2H          DATA 0x8c
0000            113   _DAC2L          DATA 0x8b
0000            114   _DAC3CF0        DATA 0x9a
0000            115   _DAC3CF1        DATA 0x9c
0000            116   _DAC3H          DATA 0x8e
0000            117   _DAC3L          DATA 0x8d
0000            118   _DACGCF0        DATA 0x88
0000            119   _DACGCF1        DATA 0x98
0000            120   _DACGCF2        DATA 0xa2
0000            121   _DERIVID        DATA 0xad
0000            122   _DEVICEID       DATA 0xb5
0000            123   _DPH            DATA 0x83
0000            124   _DPL            DATA 0x82
0000            125   _EIE1           DATA 0xe6
0000            126   _EIE2           DATA 0xf3
0000            127   _EIP1           DATA 0xbb
0000            128   _EIP1H          DATA 0xee
0000            129   _EIP2           DATA 0xed
0000            130   _EIP2H          DATA 0xf6
0000            131   _EMI0CN         DATA 0xe7
0000            132   _FLKEY          DATA 0xb7
0000            133   _HFO0CAL        DATA 0xc7
0000            134   _HFO1CAL        DATA 0xd6
0000            135   _HFOCN          DATA 0xef
0000            136   _I2C0ADM        DATA 0xff
0000            137   _I2C0CN0        DATA 0xba
0000            138   _I2C0DIN        DATA 0xbc
0000            139   _I2C0DOUT       DATA 0xbb
0000            140   _I2C0FCN0       DATA 0xad
0000            141   _I2C0FCN1       DATA 0xab
0000            142   _I2C0FCT        DATA 0xf5
0000            143   _I2C0SLAD       DATA 0xbd
0000            144   _I2C0STAT       DATA 0xb9
0000            145   _IE             DATA 0xa8
0000            146   _IP             DATA 0xb8
0000            147   _IPH            DATA 0xf2
0000            148   _IT01CF         DATA 0xe4
0000            149   _LFO0CN         DATA 0xb1
0000            150   _P0             DATA 0x80
0000            151   _P0MASK         DATA 0xfe
0000            152   _P0MAT          DATA 0xfd
0000            153   _P0MDIN         DATA 0xf1
0000            154   _P0MDOUT        DATA 0xa4
0000            155   _P0SKIP         DATA 0xd4
0000            156   _P1             DATA 0x90
0000            157   _P1MASK         DATA 0xee
0000            158   _P1MAT          DATA 0xed
0000            159   _P1MDIN         DATA 0xf2
0000            160   _P1MDOUT        DATA 0xa5
0000            161   _P1SKIP         DATA 0xd5
0000            162   _P2             DATA 0xa0
0000            163   _P2MASK         DATA 0xfc
0000            164   _P2MAT          DATA 0xfb
0000            165   _P2MDIN         DATA 0xf3
0000            166   _P2MDOUT        DATA 0xa6
0000            167   _P2SKIP         DATA 0xcc
0000            168   _P3             DATA 0xb0
0000            169   _P3MDIN         DATA 0xf4
0000            170   _P3MDOUT        DATA 0x9c
0000            171   _PCA0CENT       DATA 0x9e
0000            172   _PCA0CLR        DATA 0x9c
0000            173   _PCA0CN0        DATA 0xd8
0000            174   _PCA0CPH0       DATA 0xfc
0000            175   _PCA0CPH1       DATA 0xea
0000            176   _PCA0CPH2       DATA 0xec
0000            177   _PCA0CPH3       DATA 0xf5
0000            178   _PCA0CPH4       DATA 0x85
0000            179   _PCA0CPH5       DATA 0xde
0000            180   _PCA0CPL0       DATA 0xfb
0000            181   _PCA0CPL1       DATA 0xe9
0000            182   _PCA0CPL2       DATA 0xeb
0000            183   _PCA0CPL3       DATA 0xf4
0000            184   _PCA0CPL4       DATA 0x84
0000            185   _PCA0CPL5       DATA 0xdd
0000            186   _PCA0CPM0       DATA 0xda
0000            187   _PCA0CPM1       DATA 0xdb
0000            188   _PCA0CPM2       DATA 0xdc
0000            189   _PCA0CPM3       DATA 0xae
0000            190   _PCA0CPM4       DATA 0xaf
0000            191   _PCA0CPM5       DATA 0xcc
0000            192   _PCA0H          DATA 0xfa
0000            193   _PCA0L          DATA 0xf9
0000            194   _PCA0MD         DATA 0xd9
0000            195   _PCA0POL        DATA 0x96
0000            196   _PCA0PWM        DATA 0xf7
0000            197   _PCON0          DATA 0x87
0000            198   _PCON1          DATA 0xcd
0000            199   _PFE0CN         DATA 0xc1
0000            200   _PRTDRV         DATA 0xf6
0000            201   _PSCTL          DATA 0x8f
0000            202   _PSTAT0         DATA 0xaa
0000            203   _PSW            DATA 0xd0
0000            204   _REF0CN         DATA 0xd1
0000            205   _REG0CN         DATA 0xc9
0000            206   _REVID          DATA 0xb6
0000            207   _RSTSRC         DATA 0xef
0000            208   _SBCON1         DATA 0x94
0000            209   _SBRLH1         DATA 0x96
0000            210   _SBRLL1         DATA 0x95
0000            211   _SBUF           DATA 0x99
0000            212   _SBUF0          DATA 0x99
0000            213   _SBUF1          DATA 0x92
0000            214   _SCON           DATA 0x98
0000            215   _SCON0          DATA 0x98
0000            216   _SCON1          DATA 0xc8
0000            217   _SFRPAGE        DATA 0xa7
0000            218   _SFRPGCN        DATA 0xbc
0000            219   _SFRSTACK       DATA 0xd7
0000            220   _SMB0ADM        DATA 0xd6
0000            221   _SMB0ADR        DATA 0xd7
0000            222   _SMB0CF         DATA 0xc1
0000            223   _SMB0CN0        DATA 0xc0
0000            224   _SMB0DAT        DATA 0xc2
0000            225   _SMB0FCN0       DATA 0xc3
0000            226   _SMB0FCN1       DATA 0xc4
0000            227   _SMB0FCT        DATA 0xef
0000            228   _SMB0RXLN       DATA 0xc5
0000            229   _SMB0TC         DATA 0xac
0000            230   _SMOD1          DATA 0x93
0000            231   _SP             DATA 0x81
0000            232   _SPI0CFG        DATA 0xa1
0000            233   _SPI0CKR        DATA 0xa2
0000            234   _SPI0CN0        DATA 0xf8
0000            235   _SPI0DAT        DATA 0xa3
0000            236   _SPI0FCN0       DATA 0x9a
0000            237   _SPI0FCN1       DATA 0x9b
0000            238   _SPI0FCT        DATA 0xf7
0000            239   _SPI0PCF        DATA 0xdf
0000            240   _TCON           DATA 0x88
0000            241   _TH0            DATA 0x8c
0000            242   _TH1            DATA 0x8d
0000            243   _TL0            DATA 0x8a
0000            244   _TL1            DATA 0x8b
0000            245   _TMOD           DATA 0x89
0000            246   _TMR2CN0        DATA 0xc8
0000            247   _TMR2CN1        DATA 0xfd
0000            248   _TMR2H          DATA 0xcf
0000            249   _TMR2L          DATA 0xce
0000            250   _TMR2RLH        DATA 0xcb
0000            251   _TMR2RLL        DATA 0xca
0000            252   _TMR3CN0        DATA 0x91
0000            253   _TMR3CN1        DATA 0xfe
0000            254   _TMR3H          DATA 0x95
0000            255   _TMR3L          DATA 0x94
0000            256   _TMR3RLH        DATA 0x93
0000            257   _TMR3RLL        DATA 0x92
0000            258   _TMR4CN0        DATA 0x98
0000            259   _TMR4CN1        DATA 0xff
0000            260   _TMR4H          DATA 0xa5
0000            261   _TMR4L          DATA 0xa4
0000            262   _TMR4RLH        DATA 0xa3
0000            263   _TMR4RLL        DATA 0xa2
0000            264   _TMR5CN0        DATA 0xc0
0000            265   _TMR5CN1        DATA 0xf1
0000            266   _TMR5H          DATA 0xd5
0000            267   _TMR5L          DATA 0xd4
0000            268   _TMR5RLH        DATA 0xd3
0000            269   _TMR5RLL        DATA 0xd2
0000            270   _UART0PCF       DATA 0xd9
0000            271   _UART1FCN0      DATA 0x9d
0000            272   _UART1FCN1      DATA 0xd8
0000            273   _UART1FCT       DATA 0xfa
0000            274   _UART1LIN       DATA 0x9e
0000            275   _UART1PCF       DATA 0xda
0000            276   _VDM0CN         DATA 0xff
0000            277   _WDTCN          DATA 0x97
0000            278   _XBR0           DATA 0xe1
0000            279   _XBR1           DATA 0xe2
0000            280   _XBR2           DATA 0xe3
0000            281   _XOSC0CN        DATA 0x86
0000            282   _DPTR           DATA 0x8382
0000            283   _TMR2RL         DATA 0xcbca
0000            284   _TMR3RL         DATA 0x9392
0000            285   _TMR4RL         DATA 0xa3a2
0000            286   _TMR5RL         DATA 0xd3d2
0000            287   _TMR0           DATA 0x8c8a
0000            288   _TMR1           DATA 0x8d8b
0000            289   _TMR2           DATA 0xcfce
0000            290   _TMR3           DATA 0x9594
0000            291   _TMR4           DATA 0xa5a4
0000            292   _TMR5           DATA 0xd5d4
0000            293   _SBRL1          DATA 0x9695
0000            294   _PCA0           DATA 0xfaf9
0000            295   _PCA0CP0        DATA 0xfcfb
0000            296   _PCA0CP1        DATA 0xeae9
0000            297   _PCA0CP2        DATA 0xeceb
0000            298   _PCA0CP3        DATA 0xf5f4
0000            299   _PCA0CP4        DATA 0x8584
0000            300   _PCA0CP5        DATA 0xdedd
0000            301   _ADC0ASA        DATA 0xb6b5
0000            302   _ADC0GT         DATA 0xc4c3
0000            303   _ADC0           DATA 0xbebd
0000            304   _ADC0LT         DATA 0xc6c5
0000            305   _DAC0           DATA 0x8584
0000            306   _DAC1           DATA 0x8a89
0000            307   _DAC2           DATA 0x8c8b
0000            308   _DAC3           DATA 0x8e8d
0000            309   ;--------------------------------------------------------
0000            310   ; special function bits
0000            311   ;--------------------------------------------------------
0000            312   _ACC_0          BIT 0xe0
0000            313   _ACC_1          BIT 0xe1
0000            314   _ACC_2          BIT 0xe2
0000            315   _ACC_3          BIT 0xe3
0000            316   _ACC_4          BIT 0xe4
0000            317   _ACC_5          BIT 0xe5
0000            318   _ACC_6          BIT 0xe6
0000            319   _ACC_7          BIT 0xe7
0000            320   _TEMPE          BIT 0xe8
0000            321   _ADGN0          BIT 0xe9
0000            322   _ADGN1          BIT 0xea
0000            323   _ADWINT         BIT 0xeb
0000            324   _ADBUSY         BIT 0xec
0000            325   _ADINT          BIT 0xed
0000            326   _IPOEN          BIT 0xee
0000            327   _ADEN           BIT 0xef
0000            328   _B_0            BIT 0xf0
0000            329   _B_1            BIT 0xf1
0000            330   _B_2            BIT 0xf2
0000            331   _B_3            BIT 0xf3
0000            332   _B_4            BIT 0xf4
0000            333   _B_5            BIT 0xf5
0000            334   _B_6            BIT 0xf6
0000            335   _B_7            BIT 0xf7
0000            336   _C0FIF          BIT 0xe8
0000            337   _C0RIF          BIT 0xe9
0000            338   _C1FIF          BIT 0xea
0000            339   _C1RIF          BIT 0xeb
0000            340   _C2FIF          BIT 0xec
0000            341   _C2RIF          BIT 0xed
0000            342   _C3FIF          BIT 0xee
0000            343   _C3RIF          BIT 0xef
0000            344   _D1SRC0         BIT 0x88
0000            345   _D1SRC1         BIT 0x89
0000            346   _D1AMEN         BIT 0x8a
0000            347   _D01REFSL       BIT 0x8b
0000            348   _D3SRC0         BIT 0x8c
0000            349   _D3SRC1         BIT 0x8d
0000            350   _D3AMEN         BIT 0x8e
0000            351   _D23REFSL       BIT 0x8f
0000            352   _D0UDIS         BIT 0x98
0000            353   _D1UDIS         BIT 0x99
0000            354   _D2UDIS         BIT 0x9a
0000            355   _D3UDIS         BIT 0x9b
0000            356   _EX0            BIT 0xa8
0000            357   _ET0            BIT 0xa9
0000            358   _EX1            BIT 0xaa
0000            359   _ET1            BIT 0xab
0000            360   _ES0            BIT 0xac
0000            361   _ET2            BIT 0xad
0000            362   _ESPI0          BIT 0xae
0000            363   _EA             BIT 0xaf
0000            364   _PX0            BIT 0xb8
0000            365   _PT0            BIT 0xb9
0000            366   _PX1            BIT 0xba
0000            367   _PT1            BIT 0xbb
0000            368   _PS0            BIT 0xbc
0000            369   _PT2            BIT 0xbd
0000            370   _PSPI0          BIT 0xbe
0000            371   _P0_0           BIT 0x80
0000            372   _P0_1           BIT 0x81
0000            373   _P0_2           BIT 0x82
0000            374   _P0_3           BIT 0x83
0000            375   _P0_4           BIT 0x84
0000            376   _P0_5           BIT 0x85
0000            377   _P0_6           BIT 0x86
0000            378   _P0_7           BIT 0x87
0000            379   _P1_0           BIT 0x90
0000            380   _P1_1           BIT 0x91
0000            381   _P1_2           BIT 0x92
0000            382   _P1_3           BIT 0x93
0000            383   _P1_4           BIT 0x94
0000            384   _P1_5           BIT 0x95
0000            385   _P1_6           BIT 0x96
0000            386   _P1_7           BIT 0x97
0000            387   _P2_0           BIT 0xa0
0000            388   _P2_1           BIT 0xa1
0000            389   _P2_2           BIT 0xa2
0000            390   _P2_3           BIT 0xa3
0000            391   _P2_4           BIT 0xa4
0000            392   _P2_5           BIT 0xa5
0000            393   _P2_6           BIT 0xa6
0000            394   _P3_0           BIT 0xb0
0000            395   _P3_1           BIT 0xb1
0000            396   _P3_2           BIT 0xb2
0000            397   _P3_3           BIT 0xb3
0000            398   _P3_4           BIT 0xb4
0000            399   _P3_7           BIT 0xb7
0000            400   _CCF0           BIT 0xd8
0000            401   _CCF1           BIT 0xd9
0000            402   _CCF2           BIT 0xda
0000            403   _CCF3           BIT 0xdb
0000            404   _CCF4           BIT 0xdc
0000            405   _CCF5           BIT 0xdd
0000            406   _CR             BIT 0xde
0000            407   _CF             BIT 0xdf
0000            408   _PARITY         BIT 0xd0
0000            409   _F1             BIT 0xd1
0000            410   _OV             BIT 0xd2
0000            411   _RS0            BIT 0xd3
0000            412   _RS1            BIT 0xd4
0000            413   _F0             BIT 0xd5
0000            414   _AC             BIT 0xd6
0000            415   _CY             BIT 0xd7
0000            416   _RI             BIT 0x98
0000            417   _TI             BIT 0x99
0000            418   _RB8            BIT 0x9a
0000            419   _TB8            BIT 0x9b
0000            420   _REN            BIT 0x9c
0000            421   _CE             BIT 0x9d
0000            422   _SMODE          BIT 0x9e
0000            423   _RI1            BIT 0xc8
0000            424   _TI1            BIT 0xc9
0000            425   _RBX1           BIT 0xca
0000            426   _TBX1           BIT 0xcb
0000            427   _REN1           BIT 0xcc
0000            428   _PERR1          BIT 0xcd
0000            429   _OVR1           BIT 0xce
0000            430   _SI             BIT 0xc0
0000            431   _ACK            BIT 0xc1
0000            432   _ARBLOST        BIT 0xc2
0000            433   _ACKRQ          BIT 0xc3
0000            434   _STO            BIT 0xc4
0000            435   _STA            BIT 0xc5
0000            436   _TXMODE         BIT 0xc6
0000            437   _MASTER         BIT 0xc7
0000            438   _SPIEN          BIT 0xf8
0000            439   _TXNF           BIT 0xf9
0000            440   _NSSMD0         BIT 0xfa
0000            441   _NSSMD1         BIT 0xfb
0000            442   _RXOVRN         BIT 0xfc
0000            443   _MODF           BIT 0xfd
0000            444   _WCOL           BIT 0xfe
0000            445   _SPIF           BIT 0xff
0000            446   _IT0            BIT 0x88
0000            447   _IE0            BIT 0x89
0000            448   _IT1            BIT 0x8a
0000            449   _IE1            BIT 0x8b
0000            450   _TR0            BIT 0x8c
0000            451   _TF0            BIT 0x8d
0000            452   _TR1            BIT 0x8e
0000            453   _TF1            BIT 0x8f
0000            454   _T2XCLK0        BIT 0xc8
0000            455   _T2XCLK1        BIT 0xc9
0000            456   _TR2            BIT 0xca
0000            457   _T2SPLIT        BIT 0xcb
0000            458   _TF2CEN         BIT 0xcc
0000            459   _TF2LEN         BIT 0xcd
0000            460   _TF2L           BIT 0xce
0000            461   _TF2H           BIT 0xcf
0000            462   _T4XCLK0        BIT 0x98
0000            463   _T4XCLK1        BIT 0x99
0000            464   _TR4            BIT 0x9a
0000            465   _T4SPLIT        BIT 0x9b
0000            466   _TF4CEN         BIT 0x9c
0000            467   _TF4LEN         BIT 0x9d
0000            468   _TF4L           BIT 0x9e
0000            469   _TF4H           BIT 0x9f
0000            470   _T5XCLK0        BIT 0xc0
0000            471   _T5XCLK1        BIT 0xc1
0000            472   _TR5            BIT 0xc2
0000            473   _T5SPLIT        BIT 0xc3
0000            474   _TF5CEN         BIT 0xc4
0000            475   _TF5LEN         BIT 0xc5
0000            476   _TF5L           BIT 0xc6
0000            477   _TF5H           BIT 0xc7
0000            478   _RIE            BIT 0xd8
0000            479   _RXTO0          BIT 0xd9
0000            480   _RXTO1          BIT 0xda
0000            481   _RFRQ           BIT 0xdb
0000            482   _TIE            BIT 0xdc
0000            483   _TXHOLD         BIT 0xdd
0000            484   _TXNF1          BIT 0xde
0000            485   _TFRQ           BIT 0xdf
0000            486   ;--------------------------------------------------------
0000            487   ; overlayable register banks
0000            488   ;--------------------------------------------------------
0000            489            rbank0 segment data overlay
0000            490   ;--------------------------------------------------------
0000            491   ; internal ram data
0000            492   ;--------------------------------------------------------
0000            493            rseg R_DSEG
0000            494   _overflow_count:
0000            495            ds 1
0001            496   _LCDprint_PARM_2:
0001            497            ds 1
0002            498   _LCDprint_inv_PARM_2:
0002            499            ds 1
0003            500   _LCDprint_inv_length_1_43:
0003            501            ds 2
0005            502   _getsn_PARM_2:
0005            503            ds 2
0007            504   _getsn_buff_1_44:
0007            505            ds 3
000A            506   _getsn_sloc0_1_0:
000A            507            ds 2
000C            508   _main_period_1_52:
000C            509            ds 4
0010            510   _main_mem_1_52:
0010            511            ds 4
0014            512   _main_unstable_1_52:
0014            513            ds 2
0016            514   _main_count_1_52:
0016            515            ds 2
0018            516   _main_bpm_string_1_52:
0018            517            ds 3
001B            518   ;--------------------------------------------------------
001B            519   ; overlayable items in internal ram 
001B            520   ;--------------------------------------------------------
0000            521            rseg    R_OSEG
0000            522   ;--------------------------------------------------------
0000            523   ; indirectly addressable internal ram data
0000            524   ;--------------------------------------------------------
0000            525            rseg R_ISEG
0000            526   ;--------------------------------------------------------
0000            527   ; absolute internal ram data
0000            528   ;--------------------------------------------------------
0000            529            DSEG
0000            530   ;--------------------------------------------------------
0000            531   ; bit data
0000            532   ;--------------------------------------------------------
0000            533            rseg R_BSEG
0000            534   _LCDprint_PARM_3:
0000            535            DBIT    1
0001            536   _LCDprint_inv_PARM_3:
0001            537            DBIT    1
0002            538   ;--------------------------------------------------------
0002            539   ; paged external ram data
0002            540   ;--------------------------------------------------------
0000            541            rseg R_PSEG
0000            542   ;--------------------------------------------------------
0000            543   ; external ram data
0000            544   ;--------------------------------------------------------
0000            545            rseg R_XSEG
0000            546   ;--------------------------------------------------------
0000            547   ; absolute external ram data
0000            548   ;--------------------------------------------------------
0000            549            XSEG
0000            550   ;--------------------------------------------------------
0000            551   ; external initialized ram data
0000            552   ;--------------------------------------------------------
0000            553            rseg R_IXSEG
0000            554            rseg R_HOME
0000            555            rseg R_GSINIT
0000            556            rseg R_CSEG
0000            557   ;--------------------------------------------------------
0000            558   ; Reset entry point and interrupt vectors
0000            559   ;--------------------------------------------------------
0000            560            CSEG at 0x0000
0000 020100     561            ljmp    _crt0
0003            562   ;--------------------------------------------------------
0003            563   ; global & static initialisations
0003            564   ;--------------------------------------------------------
0000            565            rseg R_HOME
0000            566            rseg R_GSINIT
0000            567            rseg R_GSINIT
0000            568   ;--------------------------------------------------------
0000            569   ; data variables initialization
0000            570   ;--------------------------------------------------------
0000            571            rseg R_DINIT
0000            572            ; The linker places a 'ret' at the end of segment R_DINIT.
0000            573   ;--------------------------------------------------------
0000            574   ; code
0000            575   ;--------------------------------------------------------
0000            576            rseg R_CSEG
0000            577   ;------------------------------------------------------------
0000            578   ;Allocation info for local variables in function '_c51_external_startup'
0000            579   ;------------------------------------------------------------
0000            580   ;------------------------------------------------------------
0000            581   ;        C:\Users\carso\Documents\1. School\0. Spring 2018\Elec 292\lab4\hr_monitor.c:31: char _c51_external_startup (void)
0000            582   ;        -----------------------------------------
0000            583   ;         function _c51_external_startup
0000            584   ;        -----------------------------------------
0000            585   __c51_external_startup:
0000            586            using   0
0000            587   ;        C:\Users\carso\Documents\1. School\0. Spring 2018\Elec 292\lab4\hr_monitor.c:34: SFRPAGE = 0x00;
0000 75A700     588            mov     _SFRPAGE,#0x00
0003            589   ;        C:\Users\carso\Documents\1. School\0. Spring 2018\Elec 292\lab4\hr_monitor.c:35: WDTCN = 0xDE; //First key
0003 7597DE     590            mov     _WDTCN,#0xDE
0006            591   ;        C:\Users\carso\Documents\1. School\0. Spring 2018\Elec 292\lab4\hr_monitor.c:36: WDTCN = 0xAD; //Second key
0006 7597AD     592            mov     _WDTCN,#0xAD
0009            593   ;        C:\Users\carso\Documents\1. School\0. Spring 2018\Elec 292\lab4\hr_monitor.c:38: VDM0CN |= 0x80;
0009 43FF80     594            orl     _VDM0CN,#0x80
000C            595   ;        C:\Users\carso\Documents\1. School\0. Spring 2018\Elec 292\lab4\hr_monitor.c:39: RSTSRC = 0x02;
000C 75EF02     596            mov     _RSTSRC,#0x02
000F            597   ;        C:\Users\carso\Documents\1. School\0. Spring 2018\Elec 292\lab4\hr_monitor.c:46: SFRPAGE = 0x10;
000F 75A710     598            mov     _SFRPAGE,#0x10
0012            599   ;        C:\Users\carso\Documents\1. School\0. Spring 2018\Elec 292\lab4\hr_monitor.c:47: PFE0CN  = 0x20; // SYSCLK < 75 MHz.
0012 75C120     600            mov     _PFE0CN,#0x20
0015            601   ;        C:\Users\carso\Documents\1. School\0. Spring 2018\Elec 292\lab4\hr_monitor.c:48: SFRPAGE = 0x00;
0015 75A700     602            mov     _SFRPAGE,#0x00
0018            603   ;        C:\Users\carso\Documents\1. School\0. Spring 2018\Elec 292\lab4\hr_monitor.c:69: CLKSEL = 0x00;
0018 75A900     604            mov     _CLKSEL,#0x00
001B            605   ;        C:\Users\carso\Documents\1. School\0. Spring 2018\Elec 292\lab4\hr_monitor.c:70: CLKSEL = 0x00;
001B 75A900     606            mov     _CLKSEL,#0x00
001E            607   ;        C:\Users\carso\Documents\1. School\0. Spring 2018\Elec 292\lab4\hr_monitor.c:71: while ((CLKSEL & 0x80) == 0);
001E            608   L002001?:
001E E5A9       609            mov     a,_CLKSEL
0020 30E7F8     610            jnb     acc.7,L002001?
0023            611   ;        C:\Users\carso\Documents\1. School\0. Spring 2018\Elec 292\lab4\hr_monitor.c:72: CLKSEL = 0x03;
0023 75A903     612            mov     _CLKSEL,#0x03
0026            613   ;        C:\Users\carso\Documents\1. School\0. Spring 2018\Elec 292\lab4\hr_monitor.c:73: CLKSEL = 0x03;
0026 75A903     614            mov     _CLKSEL,#0x03
0029            615   ;        C:\Users\carso\Documents\1. School\0. Spring 2018\Elec 292\lab4\hr_monitor.c:74: while ((CLKSEL & 0x80) == 0);
0029            616   L002004?:
0029 E5A9       617            mov     a,_CLKSEL
002B 30E778     618            jnb     acc.7,L002004?
002E            619   ;        C:\Users\carso\Documents\1. School\0. Spring 2018\Elec 292\lab4\hr_monitor.c:79: P0MDOUT |= 0x10; // Enable UART0 TX as push-pull output
002E 43A410     620            orl     _P0MDOUT,#0x10
0031            621   ;        C:\Users\carso\Documents\1. School\0. Spring 2018\Elec 292\lab4\hr_monitor.c:80: XBR0     = 0x01; // Enable UART0 on P0.4(TX) and P0.5(RX)                     
0031 75E101     622            mov     _XBR0,#0x01
0034            623   ;        C:\Users\carso\Documents\1. School\0. Spring 2018\Elec 292\lab4\hr_monitor.c:81: XBR1     = 0X00;
0034 75E200     624            mov     _XBR1,#0x00
0037            625   ;        C:\Users\carso\Documents\1. School\0. Spring 2018\Elec 292\lab4\hr_monitor.c:82: XBR2     = 0x40; // Enable crossbar and weak pull-ups
0037 75E340     626            mov     _XBR2,#0x40
003A            627   ;        C:\Users\carso\Documents\1. School\0. Spring 2018\Elec 292\lab4\hr_monitor.c:88: SCON0 = 0x10;
003A 759810     628            mov     _SCON0,#0x10
003D            629   ;        C:\Users\carso\Documents\1. School\0. Spring 2018\Elec 292\lab4\hr_monitor.c:89: CKCON0 |= 0b_0000_0000 ; // Timer 1 uses the system clock divided by 12.
003D 858E8E     630            mov     _CKCON0,_CKCON0
0040            631   ;        C:\Users\carso\Documents\1. School\0. Spring 2018\Elec 292\lab4\hr_monitor.c:90: TH1 = 0x100-((SYSCLK/BAUDRATE)/(2L*12L));
0040 758DE6     632            mov     _TH1,#0xE6
0043            633   ;        C:\Users\carso\Documents\1. School\0. Spring 2018\Elec 292\lab4\hr_monitor.c:91: TL1 = TH1;      // Init Timer1
0043 858D8B     634            mov     _TL1,_TH1
0046            635   ;        C:\Users\carso\Documents\1. School\0. Spring 2018\Elec 292\lab4\hr_monitor.c:92: TMOD &= ~0xf0;  // TMOD: timer 1 in 8-bit auto-reload
0046 53890F     636            anl     _TMOD,#0x0F
0049            637   ;        C:\Users\carso\Documents\1. School\0. Spring 2018\Elec 292\lab4\hr_monitor.c:93: TMOD |=  0x20;                       
0049 438920     638            orl     _TMOD,#0x20
004C            639   ;        C:\Users\carso\Documents\1. School\0. Spring 2018\Elec 292\lab4\hr_monitor.c:94: TR1 = 1; // START Timer1
004C D28E       640            setb    _TR1
004E            641   ;        C:\Users\carso\Documents\1. School\0. Spring 2018\Elec 292\lab4\hr_monitor.c:95: TI = 1;  // Indicate TX0 ready
004E D299       642            setb    _TI
0050            643   ;        C:\Users\carso\Documents\1. School\0. Spring 2018\Elec 292\lab4\hr_monitor.c:97: return 0;
0050 758200     644            mov     dpl,#0x00
0053 22         645            ret
0054            646   ;------------------------------------------------------------
0054            647   ;Allocation info for local variables in function 'Timer3us'
0054            648   ;------------------------------------------------------------
0054            649   ;us                        Allocated to registers r2 
0054            650   ;i                         Allocated to registers r3 
0054            651   ;------------------------------------------------------------
0054            652   ;        C:\Users\carso\Documents\1. School\0. Spring 2018\Elec 292\lab4\hr_monitor.c:103: void Timer3us(unsigned char us)
0054            653   ;        -----------------------------------------
0054            654   ;         function Timer3us
0054            655   ;        -----------------------------------------
0054            656   _Timer3us:
0054 AA82       657            mov     r2,dpl
0056            658   ;        C:\Users\carso\Documents\1. School\0. Spring 2018\Elec 292\lab4\hr_monitor.c:108: CKCON0|=0b_0100_0000;
0056 438E40     659            orl     _CKCON0,#0x40
0059            660   ;        C:\Users\carso\Documents\1. School\0. Spring 2018\Elec 292\lab4\hr_monitor.c:110: TMR3RL = (-(SYSCLK)/1000000L); // Set Timer3 to overflow in 1us.
0059 7592B8     661            mov     _TMR3RL,#0xB8
005C 7593FF     662            mov     (_TMR3RL >> 8),#0xFF
005F            663   ;        C:\Users\carso\Documents\1. School\0. Spring 2018\Elec 292\lab4\hr_monitor.c:111: TMR3 = TMR3RL;                 // Initialize Timer3 for first overflow
005F 859294     664            mov     _TMR3,_TMR3RL
0062 859395     665            mov     (_TMR3 >> 8),(_TMR3RL >> 8)
0065            666   ;        C:\Users\carso\Documents\1. School\0. Spring 2018\Elec 292\lab4\hr_monitor.c:113: TMR3CN0 = 0x04;                 // Sart Timer3 and clear overflow flag
0065 759104     667            mov     _TMR3CN0,#0x04
0068            668   ;        C:\Users\carso\Documents\1. School\0. Spring 2018\Elec 292\lab4\hr_monitor.c:114: for (i = 0; i < us; i++)       // Count <us> overflows
0068 7B00       669            mov     r3,#0x00
006A            670   L003004?:
006A C3         671            clr     c
006B EB         672            mov     a,r3
006C 9A         673            subb    a,r2
006D 5001       674            jnc     L003007?
006F            675   ;        C:\Users\carso\Documents\1. School\0. Spring 2018\Elec 292\lab4\hr_monitor.c:116: while (!(TMR3CN0 & 0x80));  // Wait for overflow
006F            676   L003001?:
006F E591       677            mov     a,_TMR3CN0
0071 30E778     678            jnb     acc.7,L003001?
0074            679   ;        C:\Users\carso\Documents\1. School\0. Spring 2018\Elec 292\lab4\hr_monitor.c:117: TMR3CN0 &= ~(0x80);         // Clear overflow indicator
0074 53917F     680            anl     _TMR3CN0,#0x7F
0077            681   ;        C:\Users\carso\Documents\1. School\0. Spring 2018\Elec 292\lab4\hr_monitor.c:114: for (i = 0; i < us; i++)       // Count <us> overflows
0077 0B         682            inc     r3
0078 8001       683            sjmp    L003004?
007A            684   L003007?:
007A            685   ;        C:\Users\carso\Documents\1. School\0. Spring 2018\Elec 292\lab4\hr_monitor.c:119: TMR3CN0 = 0 ;                   // Stop Timer3 and clear overflow flag
007A 759100     686            mov     _TMR3CN0,#0x00
007D 22         687            ret
007E            688   ;------------------------------------------------------------
007E            689   ;Allocation info for local variables in function 'waitms'
007E            690   ;------------------------------------------------------------
007E            691   ;ms                        Allocated to registers r2 r3 
007E            692   ;j                         Allocated to registers r4 r5 
007E            693   ;k                         Allocated to registers r6 
007E            694   ;------------------------------------------------------------
007E            695   ;        C:\Users\carso\Documents\1. School\0. Spring 2018\Elec 292\lab4\hr_monitor.c:122: void waitms (unsigned int ms)
007E            696   ;        -----------------------------------------
007E            697   ;         function waitms
007E            698   ;        -----------------------------------------
007E            699   _waitms:
007E AA82       700            mov     r2,dpl
0080 AB83       701            mov     r3,dph
0082            702   ;        C:\Users\carso\Documents\1. School\0. Spring 2018\Elec 292\lab4\hr_monitor.c:126: for(j=0; j<ms; j++)
0082 7C00       703            mov     r4,#0x00
0084 7D00       704            mov     r5,#0x00
0086            705   L004005?:
0086 C3         706            clr     c
0087 EC         707            mov     a,r4
0088 9A         708            subb    a,r2
0089 ED         709            mov     a,r5
008A 9B         710            subb    a,r3
008B 5001       711            jnc     L004009?
008D            712   ;        C:\Users\carso\Documents\1. School\0. Spring 2018\Elec 292\lab4\hr_monitor.c:127: for (k=0; k<4; k++) Timer3us(250);
008D 7E00       713            mov     r6,#0x00
008F            714   L004001?:
008F BE04B8     715            cjne    r6,#0x04,L004018?
0092            716   L004018?:
0092 5001       717            jnc     L004007?
0094 7582FA     718            mov     dpl,#0xFA
0097 C002       719            push    ar2
0099 C003       720            push    ar3
009B C004       721            push    ar4
009D C005       722            push    ar5
009F C006       723            push    ar6
00A1 120100     724            lcall   _Timer3us
00A4 D006       725            pop     ar6
00A6 D005       726            pop     ar5
00A8 D004       727            pop     ar4
00AA D003       728            pop     ar3
00AC D002       729            pop     ar2
00AE 0E         730            inc     r6
00AF 8001       731            sjmp    L004001?
00B1            732   L004007?:
00B1            733   ;        C:\Users\carso\Documents\1. School\0. Spring 2018\Elec 292\lab4\hr_monitor.c:126: for(j=0; j<ms; j++)
00B1 0C         734            inc     r4
00B2 BC00F8     735            cjne    r4,#0x00,L004005?
00B5 0D         736            inc     r5
00B6 8001       737            sjmp    L004005?
00B8            738   L004009?:
00B8 22         739            ret
00B9            740   ;------------------------------------------------------------
00B9            741   ;Allocation info for local variables in function 'LCD_pulse'
00B9            742   ;------------------------------------------------------------
00B9            743   ;------------------------------------------------------------
00B9            744   ;        C:\Users\carso\Documents\1. School\0. Spring 2018\Elec 292\lab4\hr_monitor.c:130: void LCD_pulse (void)
00B9            745   ;        -----------------------------------------
00B9            746   ;         function LCD_pulse
00B9            747   ;        -----------------------------------------
00B9            748   _LCD_pulse:
00B9            749   ;        C:\Users\carso\Documents\1. School\0. Spring 2018\Elec 292\lab4\hr_monitor.c:132: LCD_E=1;
00B9 D2A5       750            setb    _P2_5
00BB            751   ;        C:\Users\carso\Documents\1. School\0. Spring 2018\Elec 292\lab4\hr_monitor.c:133: Timer3us(40);
00BB 758228     752            mov     dpl,#0x28
00BE 120100     753            lcall   _Timer3us
00C1            754   ;        C:\Users\carso\Documents\1. School\0. Spring 2018\Elec 292\lab4\hr_monitor.c:134: LCD_E=0;
00C1 C2A5       755            clr     _P2_5
00C3 22         756            ret
00C4            757   ;------------------------------------------------------------
00C4            758   ;Allocation info for local variables in function 'LCD_byte'
00C4            759   ;------------------------------------------------------------
00C4            760   ;x                         Allocated to registers r2 
00C4            761   ;------------------------------------------------------------
00C4            762   ;        C:\Users\carso\Documents\1. School\0. Spring 2018\Elec 292\lab4\hr_monitor.c:137: void LCD_byte (unsigned char x)
00C4            763   ;        -----------------------------------------
00C4            764   ;         function LCD_byte
00C4            765   ;        -----------------------------------------
00C4            766   _LCD_byte:
00C4 AA82       767            mov     r2,dpl
00C6            768   ;        C:\Users\carso\Documents\1. School\0. Spring 2018\Elec 292\lab4\hr_monitor.c:140: ACC=x; //Send high nible
00C6 8AE0       769            mov     _ACC,r2
00C8            770   ;        C:\Users\carso\Documents\1. School\0. Spring 2018\Elec 292\lab4\hr_monitor.c:141: LCD_D7=ACC_7;
00C8 A2E7       771            mov     c,_ACC_7
00CA 92A1       772            mov     _P2_1,c
00CC            773   ;        C:\Users\carso\Documents\1. School\0. Spring 2018\Elec 292\lab4\hr_monitor.c:142: LCD_D6=ACC_6;
00CC A2E6       774            mov     c,_ACC_6
00CE 92A2       775            mov     _P2_2,c
00D0            776   ;        C:\Users\carso\Documents\1. School\0. Spring 2018\Elec 292\lab4\hr_monitor.c:143: LCD_D5=ACC_5;
00D0 A2E5       777            mov     c,_ACC_5
00D2 92A3       778            mov     _P2_3,c
00D4            779   ;        C:\Users\carso\Documents\1. School\0. Spring 2018\Elec 292\lab4\hr_monitor.c:144: LCD_D4=ACC_4;
00D4 A2E4       780            mov     c,_ACC_4
00D6 92A4       781            mov     _P2_4,c
00D8            782   ;        C:\Users\carso\Documents\1. School\0. Spring 2018\Elec 292\lab4\hr_monitor.c:145: LCD_pulse();
00D8 C002       783            push    ar2
00DA 120100     784            lcall   _LCD_pulse
00DD            785   ;        C:\Users\carso\Documents\1. School\0. Spring 2018\Elec 292\lab4\hr_monitor.c:146: Timer3us(40);
00DD 758228     786            mov     dpl,#0x28
00E0 120100     787            lcall   _Timer3us
00E3 D002       788            pop     ar2
00E5            789   ;        C:\Users\carso\Documents\1. School\0. Spring 2018\Elec 292\lab4\hr_monitor.c:147: ACC=x; //Send low nible
00E5 8AE0       790            mov     _ACC,r2
00E7            791   ;        C:\Users\carso\Documents\1. School\0. Spring 2018\Elec 292\lab4\hr_monitor.c:148: LCD_D7=ACC_3;
00E7 A2E3       792            mov     c,_ACC_3
00E9 92A1       793            mov     _P2_1,c
00EB            794   ;        C:\Users\carso\Documents\1. School\0. Spring 2018\Elec 292\lab4\hr_monitor.c:149: LCD_D6=ACC_2;
00EB A2E2       795            mov     c,_ACC_2
00ED 92A2       796            mov     _P2_2,c
00EF            797   ;        C:\Users\carso\Documents\1. School\0. Spring 2018\Elec 292\lab4\hr_monitor.c:150: LCD_D5=ACC_1;
00EF A2E1       798            mov     c,_ACC_1
00F1 92A3       799            mov     _P2_3,c
00F3            800   ;        C:\Users\carso\Documents\1. School\0. Spring 2018\Elec 292\lab4\hr_monitor.c:151: LCD_D4=ACC_0;
00F3 A2E0       801            mov     c,_ACC_0
00F5 92A4       802            mov     _P2_4,c
00F7            803   ;        C:\Users\carso\Documents\1. School\0. Spring 2018\Elec 292\lab4\hr_monitor.c:152: LCD_pulse();
00F7 020100     804            ljmp    _LCD_pulse
00FA            805   ;------------------------------------------------------------
00FA            806   ;Allocation info for local variables in function 'WriteData'
00FA            807   ;------------------------------------------------------------
00FA            808   ;x                         Allocated to registers r2 
00FA            809   ;------------------------------------------------------------
00FA            810   ;        C:\Users\carso\Documents\1. School\0. Spring 2018\Elec 292\lab4\hr_monitor.c:155: void WriteData (unsigned char x)
00FA            811   ;        -----------------------------------------
00FA            812   ;         function WriteData
00FA            813   ;        -----------------------------------------
00FA            814   _WriteData:
00FA AA82       815            mov     r2,dpl
00FC            816   ;        C:\Users\carso\Documents\1. School\0. Spring 2018\Elec 292\lab4\hr_monitor.c:157: LCD_RS=1;
00FC D2A6       817            setb    _P2_6
00FE            818   ;        C:\Users\carso\Documents\1. School\0. Spring 2018\Elec 292\lab4\hr_monitor.c:158: LCD_byte(x);
00FE 8A82       819            mov     dpl,r2
0100 120100     820            lcall   _LCD_byte
0103            821   ;        C:\Users\carso\Documents\1. School\0. Spring 2018\Elec 292\lab4\hr_monitor.c:159: waitms(2);
0103 900002     822            mov     dptr,#0x0002
0106 020100     823            ljmp    _waitms
0109            824   ;------------------------------------------------------------
0109            825   ;Allocation info for local variables in function 'WriteCommand'
0109            826   ;------------------------------------------------------------
0109            827   ;x                         Allocated to registers r2 
0109            828   ;------------------------------------------------------------
0109            829   ;        C:\Users\carso\Documents\1. School\0. Spring 2018\Elec 292\lab4\hr_monitor.c:162: void WriteCommand (unsigned char x)
0109            830   ;        -----------------------------------------
0109            831   ;         function WriteCommand
0109            832   ;        -----------------------------------------
0109            833   _WriteCommand:
0109 AA82       834            mov     r2,dpl
010B            835   ;        C:\Users\carso\Documents\1. School\0. Spring 2018\Elec 292\lab4\hr_monitor.c:164: LCD_RS=0;
010B C2A6       836            clr     _P2_6
010D            837   ;        C:\Users\carso\Documents\1. School\0. Spring 2018\Elec 292\lab4\hr_monitor.c:165: LCD_byte(x);
010D 8A82       838            mov     dpl,r2
010F 120100     839            lcall   _LCD_byte
0112            840   ;        C:\Users\carso\Documents\1. School\0. Spring 2018\Elec 292\lab4\hr_monitor.c:166: waitms(5);
0112 900005     841            mov     dptr,#0x0005
0115 020100     842            ljmp    _waitms
0118            843   ;------------------------------------------------------------
0118            844   ;Allocation info for local variables in function 'LCD_4BIT'
0118            845   ;------------------------------------------------------------
0118            846   ;------------------------------------------------------------
0118            847   ;        C:\Users\carso\Documents\1. School\0. Spring 2018\Elec 292\lab4\hr_monitor.c:169: void LCD_4BIT (void)
0118            848   ;        -----------------------------------------
0118            849   ;         function LCD_4BIT
0118            850   ;        -----------------------------------------
0118            851   _LCD_4BIT:
0118            852   ;        C:\Users\carso\Documents\1. School\0. Spring 2018\Elec 292\lab4\hr_monitor.c:171: LCD_E=0; // Resting state of LCD's enable is zero
0118 C2A5       853            clr     _P2_5
011A            854   ;        C:\Users\carso\Documents\1. School\0. Spring 2018\Elec 292\lab4\hr_monitor.c:173: waitms(20);
011A 900014     855            mov     dptr,#0x0014
011D 120100     856            lcall   _waitms
0120            857   ;        C:\Users\carso\Documents\1. School\0. Spring 2018\Elec 292\lab4\hr_monitor.c:175: WriteCommand(0x33);
0120 758233     858            mov     dpl,#0x33
0123 120100     859            lcall   _WriteCommand
0126            860   ;        C:\Users\carso\Documents\1. School\0. Spring 2018\Elec 292\lab4\hr_monitor.c:176: WriteCommand(0x33);
0126 758233     861            mov     dpl,#0x33
0129 120100     862            lcall   _WriteCommand
012C            863   ;        C:\Users\carso\Documents\1. School\0. Spring 2018\Elec 292\lab4\hr_monitor.c:177: WriteCommand(0x32); // Change to 4-bit mode
012C 758232     864            mov     dpl,#0x32
012F 120100     865            lcall   _WriteCommand
0132            866   ;        C:\Users\carso\Documents\1. School\0. Spring 2018\Elec 292\lab4\hr_monitor.c:180: WriteCommand(0x28);
0132 758228     867            mov     dpl,#0x28
0135 120100     868            lcall   _WriteCommand
0138            869   ;        C:\Users\carso\Documents\1. School\0. Spring 2018\Elec 292\lab4\hr_monitor.c:181: WriteCommand(0x0c);
0138 75820C     870            mov     dpl,#0x0C
013B 120100     871            lcall   _WriteCommand
013E            872   ;        C:\Users\carso\Documents\1. School\0. Spring 2018\Elec 292\lab4\hr_monitor.c:182: WriteCommand(0x01); // Clear screen command (takes some time)
013E 758201     873            mov     dpl,#0x01
0141 120100     874            lcall   _WriteCommand
0144            875   ;        C:\Users\carso\Documents\1. School\0. Spring 2018\Elec 292\lab4\hr_monitor.c:183: waitms(20); // Wait for clear screen command to finsih.
0144 900014     876            mov     dptr,#0x0014
0147 020100     877            ljmp    _waitms
014A            878   ;------------------------------------------------------------
014A            879   ;Allocation info for local variables in function 'LCDprint'
014A            880   ;------------------------------------------------------------
014A            881   ;line                      Allocated with name '_LCDprint_PARM_2'
014A            882   ;string                    Allocated to registers r2 r3 r4 
014A            883   ;j                         Allocated to registers r5 r6 
014A            884   ;------------------------------------------------------------
014A            885   ;        C:\Users\carso\Documents\1. School\0. Spring 2018\Elec 292\lab4\hr_monitor.c:186: void LCDprint(char * string, unsigned char line, bit clear)
014A            886   ;        -----------------------------------------
014A            887   ;         function LCDprint
014A            888   ;        -----------------------------------------
014A            889   _LCDprint:
014A AA82       890            mov     r2,dpl
014C AB83       891            mov     r3,dph
014E ACF0       892            mov     r4,b
0150            893   ;        C:\Users\carso\Documents\1. School\0. Spring 2018\Elec 292\lab4\hr_monitor.c:190: WriteCommand(line==2?0xc0:0x80);
0150 7402       894            mov     a,#0x02
0152 B5D078     895            cjne    a,_LCDprint_PARM_2,L010013?
0155 7DC0       896            mov     r5,#0xC0
0157 8001       897            sjmp    L010014?
0159            898   L010013?:
0159 7D80       899            mov     r5,#0x80
015B            900   L010014?:
015B 8D82       901            mov     dpl,r5
015D C002       902            push    ar2
015F C003       903            push    ar3
0161 C004       904            push    ar4
0163 120100     905            lcall   _WriteCommand
0166            906   ;        C:\Users\carso\Documents\1. School\0. Spring 2018\Elec 292\lab4\hr_monitor.c:191: waitms(5);
0166 900005     907            mov     dptr,#0x0005
0169 120100     908            lcall   _waitms
016C D004       909            pop     ar4
016E D003       910            pop     ar3
0170 D002       911            pop     ar2
0172            912   ;        C:\Users\carso\Documents\1. School\0. Spring 2018\Elec 292\lab4\hr_monitor.c:192: for(j=0; string[j]!=0; j++)   WriteData(string[j]);// Write the message
0172 7D00       913            mov     r5,#0x00
0174 7E00       914            mov     r6,#0x00
0176            915   L010003?:
0176 ED         916            mov     a,r5
0177 2A         917            add     a,r2
0178 FF         918            mov     r7,a
0179 EE         919            mov     a,r6
017A 3B         920            addc    a,r3
017B F8         921            mov     r0,a
017C 8C01       922            mov     ar1,r4
017E 8F82       923            mov     dpl,r7
0180 8883       924            mov     dph,r0
0182 89F0       925            mov     b,r1
0184 120100     926            lcall   __gptrget
0187 FF         927            mov     r7,a
0188 6001       928            jz      L010006?
018A 8F82       929            mov     dpl,r7
018C C002       930            push    ar2
018E C003       931            push    ar3
0190 C004       932            push    ar4
0192 C005       933            push    ar5
0194 C006       934            push    ar6
0196 120100     935            lcall   _WriteData
0199 D006       936            pop     ar6
019B D005       937            pop     ar5
019D D004       938            pop     ar4
019F D003       939            pop     ar3
01A1 D002       940            pop     ar2
01A3 0D         941            inc     r5
01A4 BD00F8     942            cjne    r5,#0x00,L010003?
01A7 0E         943            inc     r6
01A8 8001       944            sjmp    L010003?
01AA            945   L010006?:
01AA            946   ;        C:\Users\carso\Documents\1. School\0. Spring 2018\Elec 292\lab4\hr_monitor.c:193: if(clear) for(; j<CHARS_PER_LINE; j++) WriteData(' '); // Clear the rest of the line
01AA 30F0B8     947            jnb     _LCDprint_PARM_3,L010011?
01AD 8D02       948            mov     ar2,r5
01AF 8E03       949            mov     ar3,r6
01B1            950   L010007?:
01B1 C3         951            clr     c
01B2 EA         952            mov     a,r2
01B3 9410       953            subb    a,#0x10
01B5 EB         954            mov     a,r3
01B6 6480       955            xrl     a,#0x80
01B8 9480       956            subb    a,#0x80
01BA 5001       957            jnc     L010011?
01BC 758220     958            mov     dpl,#0x20
01BF C002       959            push    ar2
01C1 C003       960            push    ar3
01C3 120100     961            lcall   _WriteData
01C6 D003       962            pop     ar3
01C8 D002       963            pop     ar2
01CA 0A         964            inc     r2
01CB BA00F8     965            cjne    r2,#0x00,L010007?
01CE 0B         966            inc     r3
01CF 8001       967            sjmp    L010007?
01D1            968   L010011?:
01D1 22         969            ret
01D2            970   ;------------------------------------------------------------
01D2            971   ;Allocation info for local variables in function 'LCDprint_inv'
01D2            972   ;------------------------------------------------------------
01D2            973   ;line                      Allocated with name '_LCDprint_inv_PARM_2'
01D2            974   ;string                    Allocated to registers r2 r3 r4 
01D2            975   ;j                         Allocated to registers r5 r6 
01D2            976   ;length                    Allocated with name '_LCDprint_inv_length_1_43'
01D2            977   ;------------------------------------------------------------
01D2            978   ;        C:\Users\carso\Documents\1. School\0. Spring 2018\Elec 292\lab4\hr_monitor.c:196: void LCDprint_inv(char * string, unsigned char line, bit clear)
01D2            979   ;        -----------------------------------------
01D2            980   ;         function LCDprint_inv
01D2            981   ;        -----------------------------------------
01D2            982   _LCDprint_inv:
01D2 AA82       983            mov     r2,dpl
01D4 AB83       984            mov     r3,dph
01D6 ACF0       985            mov     r4,b
01D8            986   ;        C:\Users\carso\Documents\1. School\0. Spring 2018\Elec 292\lab4\hr_monitor.c:201: WriteCommand(line==2?0xc0:0x80);
01D8 7402       987            mov     a,#0x02
01DA B58038     988            cjne    a,_LCDprint_inv_PARM_2,L011017?
01DD 7DC0       989            mov     r5,#0xC0
01DF 8001       990            sjmp    L011018?
01E1            991   L011017?:
01E1 7D80       992            mov     r5,#0x80
01E3            993   L011018?:
01E3 8D82       994            mov     dpl,r5
01E5 C002       995            push    ar2
01E7 C003       996            push    ar3
01E9 C004       997            push    ar4
01EB 120100     998            lcall   _WriteCommand
01EE            999   ;        C:\Users\carso\Documents\1. School\0. Spring 2018\Elec 292\lab4\hr_monitor.c:202: waitms(5);
01EE 900005    1000            mov     dptr,#0x0005
01F1 120100    1001            lcall   _waitms
01F4 D004      1002            pop     ar4
01F6 D003      1003            pop     ar3
01F8 D002      1004            pop     ar2
01FA           1005   ;        C:\Users\carso\Documents\1. School\0. Spring 2018\Elec 292\lab4\hr_monitor.c:203: for(j=0; string[j]!=0; j++)   length++;
01FA E4        1006            clr     a
01FB F558      1007            mov     _LCDprint_inv_length_1_43,a
01FD F559      1008            mov     (_LCDprint_inv_length_1_43 + 1),a
01FF FF        1009            mov     r7,a
0200 F8        1010            mov     r0,a
0201           1011   L011003?:
0201 EF        1012            mov     a,r7
0202 2A        1013            add     a,r2
0203 F9        1014            mov     r1,a
0204 E8        1015            mov     a,r0
0205 3B        1016            addc    a,r3
0206 FD        1017            mov     r5,a
0207 8C06      1018            mov     ar6,r4
0209 8982      1019            mov     dpl,r1
020B 8D83      1020            mov     dph,r5
020D 8EF0      1021            mov     b,r6
020F 120100    1022            lcall   __gptrget
0212 F9        1023            mov     r1,a
0213 6001      1024            jz      L011006?
0215 0558      1025            inc     _LCDprint_inv_length_1_43
0217 E4        1026            clr     a
0218 B55838    1027            cjne    a,_LCDprint_inv_length_1_43,L011032?
021B 0559      1028            inc     (_LCDprint_inv_length_1_43 + 1)
021D           1029   L011032?:
021D 0F        1030            inc     r7
021E BF00B8    1031            cjne    r7,#0x00,L011003?
0221 08        1032            inc     r0
0222 8001      1033            sjmp    L011003?
0224           1034   L011006?:
0224           1035   ;        C:\Users\carso\Documents\1. School\0. Spring 2018\Elec 292\lab4\hr_monitor.c:204: for(j=length-1; j>=0; j--) WriteData(string[j]);// Write the message
0224 E558      1036            mov     a,_LCDprint_inv_length_1_43
0226 24FF      1037            add     a,#0xff
0228 FD        1038            mov     r5,a
0229 E559      1039            mov     a,(_LCDprint_inv_length_1_43 + 1)
022B 34FF      1040            addc    a,#0xff
022D FE        1041            mov     r6,a
022E           1042   L011007?:
022E EE        1043            mov     a,r6
022F 20E7B8    1044            jb      acc.7,L011010?
0232 ED        1045            mov     a,r5
0233 2A        1046            add     a,r2
0234 FF        1047            mov     r7,a
0235 EE        1048            mov     a,r6
0236 3B        1049            addc    a,r3
0237 F8        1050            mov     r0,a
0238 8C01      1051            mov     ar1,r4
023A 8F82      1052            mov     dpl,r7
023C 8883      1053            mov     dph,r0
023E 89F0      1054            mov     b,r1
0240 120100    1055            lcall   __gptrget
0243 F582      1056            mov     dpl,a
0245 C002      1057            push    ar2
0247 C003      1058            push    ar3
0249 C004      1059            push    ar4
024B C005      1060            push    ar5
024D C006      1061            push    ar6
024F 120100    1062            lcall   _WriteData
0252 D006      1063            pop     ar6
0254 D005      1064            pop     ar5
0256 D004      1065            pop     ar4
0258 D003      1066            pop     ar3
025A D002      1067            pop     ar2
025C 1D        1068            dec     r5
025D BDFFF8    1069            cjne    r5,#0xff,L011035?
0260 1E        1070            dec     r6
0261           1071   L011035?:
0261 8001      1072            sjmp    L011007?
0263           1073   L011010?:
0263           1074   ;        C:\Users\carso\Documents\1. School\0. Spring 2018\Elec 292\lab4\hr_monitor.c:205: if(clear) for(; j<CHARS_PER_LINE; j++) WriteData(' '); // Clear the rest of the line
0263 30A038    1075            jnb     _LCDprint_inv_PARM_3,L011015?
0266 8D02      1076            mov     ar2,r5
0268 8E03      1077            mov     ar3,r6
026A           1078   L011011?:
026A C3        1079            clr     c
026B EA        1080            mov     a,r2
026C 9410      1081            subb    a,#0x10
026E EB        1082            mov     a,r3
026F 6480      1083            xrl     a,#0x80
0271 9480      1084            subb    a,#0x80
0273 5001      1085            jnc     L011015?
0275 758220    1086            mov     dpl,#0x20
0278 C002      1087            push    ar2
027A C003      1088            push    ar3
027C 120100    1089            lcall   _WriteData
027F D003      1090            pop     ar3
0281 D002      1091            pop     ar2
0283 0A        1092            inc     r2
0284 BA0078    1093            cjne    r2,#0x00,L011011?
0287 0B        1094            inc     r3
0288 8001      1095            sjmp    L011011?
028A           1096   L011015?:
028A 22        1097            ret
028B           1098   ;------------------------------------------------------------
028B           1099   ;Allocation info for local variables in function 'getsn'
028B           1100   ;------------------------------------------------------------
028B           1101   ;len                       Allocated with name '_getsn_PARM_2'
028B           1102   ;buff                      Allocated with name '_getsn_buff_1_44'
028B           1103   ;j                         Allocated with name '_getsn_sloc0_1_0'
028B           1104   ;c                         Allocated to registers r3 
028B           1105   ;sloc0                     Allocated with name '_getsn_sloc0_1_0'
028B           1106   ;------------------------------------------------------------
028B           1107   ;        C:\Users\carso\Documents\1. School\0. Spring 2018\Elec 292\lab4\hr_monitor.c:209: int getsn (char * buff, int len)
028B           1108   ;        -----------------------------------------
028B           1109   ;         function getsn
028B           1110   ;        -----------------------------------------
028B           1111   _getsn:
028B 8582A8    1112            mov     _getsn_buff_1_44,dpl
028E 8583A9    1113            mov     (_getsn_buff_1_44 + 1),dph
0291 85F0AA    1114            mov     (_getsn_buff_1_44 + 2),b
0294           1115   ;        C:\Users\carso\Documents\1. School\0. Spring 2018\Elec 292\lab4\hr_monitor.c:214: for(j=0; j<(len-1); j++)
0294 E4        1116            clr     a
0295 F5F8      1117            mov     _getsn_sloc0_1_0,a
0297 F5F9      1118            mov     (_getsn_sloc0_1_0 + 1),a
0299 E530      1119            mov     a,_getsn_PARM_2
029B 24FF      1120            add     a,#0xff
029D FF        1121            mov     r7,a
029E E531      1122            mov     a,(_getsn_PARM_2 + 1)
02A0 34FF      1123            addc    a,#0xff
02A2 F8        1124            mov     r0,a
02A3 7900      1125            mov     r1,#0x00
02A5 7A00      1126            mov     r2,#0x00
02A7           1127   L012005?:
02A7 C3        1128            clr     c
02A8 E9        1129            mov     a,r1
02A9 9F        1130            subb    a,r7
02AA EA        1131            mov     a,r2
02AB 6480      1132            xrl     a,#0x80
02AD 88F0      1133            mov     b,r0
02AF 63F080    1134            xrl     b,#0x80
02B2 95F0      1135            subb    a,b
02B4 5001      1136            jnc     L012008?
02B6           1137   ;        C:\Users\carso\Documents\1. School\0. Spring 2018\Elec 292\lab4\hr_monitor.c:216: c=getchar();
02B6 C002      1138            push    ar2
02B8 C007      1139            push    ar7
02BA C000      1140            push    ar0
02BC C001      1141            push    ar1
02BE 120100    1142            lcall   _getchar
02C1 AB82      1143            mov     r3,dpl
02C3 D001      1144            pop     ar1
02C5 D000      1145            pop     ar0
02C7 D007      1146            pop     ar7
02C9 D002      1147            pop     ar2
02CB           1148   ;        C:\Users\carso\Documents\1. School\0. Spring 2018\Elec 292\lab4\hr_monitor.c:217: if ( (c=='\n') || (c=='\r') )
02CB BB0A80    1149            cjne    r3,#0x0A,L012015?
02CE 8001      1150            sjmp    L012001?
02D0           1151   L012015?:
02D0 BB0D00    1152            cjne    r3,#0x0D,L012002?
02D3           1153   L012001?:
02D3           1154   ;        C:\Users\carso\Documents\1. School\0. Spring 2018\Elec 292\lab4\hr_monitor.c:219: buff[j]=0;
02D3 E5F8      1155            mov     a,_getsn_sloc0_1_0
02D5 25A8      1156            add     a,_getsn_buff_1_44
02D7 FC        1157            mov     r4,a
02D8 E5F9      1158            mov     a,(_getsn_sloc0_1_0 + 1)
02DA 35A9      1159            addc    a,(_getsn_buff_1_44 + 1)
02DC FD        1160            mov     r5,a
02DD AEAA      1161            mov     r6,(_getsn_buff_1_44 + 2)
02DF 8C82      1162            mov     dpl,r4
02E1 8D83      1163            mov     dph,r5
02E3 8EF0      1164            mov     b,r6
02E5 E4        1165            clr     a
02E6 120100    1166            lcall   __gptrput
02E9           1167   ;        C:\Users\carso\Documents\1. School\0. Spring 2018\Elec 292\lab4\hr_monitor.c:220: return j;
02E9 85F882    1168            mov     dpl,_getsn_sloc0_1_0
02EC 85F983    1169            mov     dph,(_getsn_sloc0_1_0 + 1)
02EF 22        1170            ret
02F0           1171   L012002?:
02F0           1172   ;        C:\Users\carso\Documents\1. School\0. Spring 2018\Elec 292\lab4\hr_monitor.c:224: buff[j]=c;
02F0 E9        1173            mov     a,r1
02F1 25A8      1174            add     a,_getsn_buff_1_44
02F3 FC        1175            mov     r4,a
02F4 EA        1176            mov     a,r2
02F5 35A9      1177            addc    a,(_getsn_buff_1_44 + 1)
02F7 FD        1178            mov     r5,a
02F8 AEAA      1179            mov     r6,(_getsn_buff_1_44 + 2)
02FA 8C82      1180            mov     dpl,r4
02FC 8D83      1181            mov     dph,r5
02FE 8EF0      1182            mov     b,r6
0300 EB        1183            mov     a,r3
0301 120100    1184            lcall   __gptrput
0304           1185   ;        C:\Users\carso\Documents\1. School\0. Spring 2018\Elec 292\lab4\hr_monitor.c:214: for(j=0; j<(len-1); j++)
0304 09        1186            inc     r1
0305 B90080    1187            cjne    r1,#0x00,L012018?
0308 0A        1188            inc     r2
0309           1189   L012018?:
0309 89F8      1190            mov     _getsn_sloc0_1_0,r1
030B 8AF9      1191            mov     (_getsn_sloc0_1_0 + 1),r2
030D 8001      1192            sjmp    L012005?
030F           1193   L012008?:
030F           1194   ;        C:\Users\carso\Documents\1. School\0. Spring 2018\Elec 292\lab4\hr_monitor.c:227: buff[j]=0;
030F E5F8      1195            mov     a,_getsn_sloc0_1_0
0311 25A8      1196            add     a,_getsn_buff_1_44
0313 FA        1197            mov     r2,a
0314 E5F9      1198            mov     a,(_getsn_sloc0_1_0 + 1)
0316 35A9      1199            addc    a,(_getsn_buff_1_44 + 1)
0318 FB        1200            mov     r3,a
0319 ACAA      1201            mov     r4,(_getsn_buff_1_44 + 2)
031B 8A82      1202            mov     dpl,r2
031D 8B83      1203            mov     dph,r3
031F 8CF0      1204            mov     b,r4
0321 E4        1205            clr     a
0322 120100    1206            lcall   __gptrput
0325           1207   ;        C:\Users\carso\Documents\1. School\0. Spring 2018\Elec 292\lab4\hr_monitor.c:228: return len;
0325 853082    1208            mov     dpl,_getsn_PARM_2
0328 853183    1209            mov     dph,(_getsn_PARM_2 + 1)
032B 22        1210            ret
032C           1211   ;------------------------------------------------------------
032C           1212   ;Allocation info for local variables in function 'TIMER0_Init'
032C           1213   ;------------------------------------------------------------
032C           1214   ;------------------------------------------------------------
032C           1215   ;        C:\Users\carso\Documents\1. School\0. Spring 2018\Elec 292\lab4\hr_monitor.c:231: void TIMER0_Init(void)
032C           1216   ;        -----------------------------------------
032C           1217   ;         function TIMER0_Init
032C           1218   ;        -----------------------------------------
032C           1219   _TIMER0_Init:
032C           1220   ;        C:\Users\carso\Documents\1. School\0. Spring 2018\Elec 292\lab4\hr_monitor.c:233: TMOD&=0b_1111_0000; // Set the bits of Timer/Counter 0 to zero
032C 5389F0    1221            anl     _TMOD,#0xF0
032F           1222   ;        C:\Users\carso\Documents\1. School\0. Spring 2018\Elec 292\lab4\hr_monitor.c:234: TMOD|=0b_0000_0001; // Timer/Counter 0 used as a 16-bit timer
032F 438901    1223            orl     _TMOD,#0x01
0332           1224   ;        C:\Users\carso\Documents\1. School\0. Spring 2018\Elec 292\lab4\hr_monitor.c:235: TR0=0; // Stop Timer/Counter 0
0332 C28C      1225            clr     _TR0
0334 22        1226            ret
0335           1227   ;------------------------------------------------------------
0335           1228   ;Allocation info for local variables in function 'main'
0335           1229   ;------------------------------------------------------------
0335           1230   ;period                    Allocated with name '_main_period_1_52'
0335           1231   ;bpm                       Allocated to registers r6 r7 r0 r1 
0335           1232   ;mem                       Allocated with name '_main_mem_1_52'
0335           1233   ;unstable                  Allocated with name '_main_unstable_1_52'
0335           1234   ;bpm_int                   Allocated to registers r2 r3 
0335           1235   ;count                     Allocated with name '_main_count_1_52'
0335           1236   ;bpm_string                Allocated with name '_main_bpm_string_1_52'
0335           1237   ;------------------------------------------------------------
0335           1238   ;        C:\Users\carso\Documents\1. School\0. Spring 2018\Elec 292\lab4\hr_monitor.c:238: void main (void) 
0335           1239   ;        -----------------------------------------
0335           1240   ;         function main
0335           1241   ;        -----------------------------------------
0335           1242   _main:
0335           1243   ;        C:\Users\carso\Documents\1. School\0. Spring 2018\Elec 292\lab4\hr_monitor.c:244: float mem=0.0;
0335           1244   ;        C:\Users\carso\Documents\1. School\0. Spring 2018\Elec 292\lab4\hr_monitor.c:245: int unstable=0;
0335           1245   ;        C:\Users\carso\Documents\1. School\0. Spring 2018\Elec 292\lab4\hr_monitor.c:249: char * bpm_string=NULL;
0335 E4        1246            clr     a
0336 F588      1247            mov     _main_mem_1_52,a
0338 F589      1248            mov     (_main_mem_1_52 + 1),a
033A F58A      1249            mov     (_main_mem_1_52 + 2),a
033C F58B      1250            mov (_main_mem_1_52 + 3),a
033E F5D8      1251            mov _main_unstable_1_52,a
0340 F5D9      1252            mov (_main_unstable_1_52 + 1),a
0342 F578      1253            mov _main_bpm_string_1_52,a
0344 F579      1254            mov (_main_bpm_string_1_52 + 1),a
0346 F57A      1255            mov (_main_bpm_string_1_52 + 2),a
0348           1256   ;        C:\Users\carso\Documents\1. School\0. Spring 2018\Elec 292\lab4\hr_monitor.c:252: TIMER0_Init();
0348 120100    1257            lcall   _TIMER0_Init
034B           1258   ;        C:\Users\carso\Documents\1. School\0. Spring 2018\Elec 292\lab4\hr_monitor.c:255: LCD_4BIT();
034B 120100    1259            lcall   _LCD_4BIT
034E           1260   ;        C:\Users\carso\Documents\1. School\0. Spring 2018\Elec 292\lab4\hr_monitor.c:259: LCDprint("Place clip on   ", 1, 1);
034E 75D001    1261            mov     _LCDprint_PARM_2,#0x01
0351 D2F0      1262            setb    _LCDprint_PARM_3
0353 90C1C0    1263            mov     dptr,#__str_0
0356 75F080    1264            mov     b,#0x80
0359 120100    1265            lcall   _LCDprint
035C           1266   ;        C:\Users\carso\Documents\1. School\0. Spring 2018\Elec 292\lab4\hr_monitor.c:260: LCDprint("Ring fingernail", 2, 1);
035C 75D002    1267            mov     _LCDprint_PARM_2,#0x02
035F D2F0      1268            setb    _LCDprint_PARM_3
0361 90C200    1269            mov     dptr,#__str_1
0364 75F080    1270            mov     b,#0x80
0367 120100    1271            lcall   _LCDprint
036A           1272   ;        C:\Users\carso\Documents\1. School\0. Spring 2018\Elec 292\lab4\hr_monitor.c:263: waitms(1000);
036A 9003E8    1273            mov     dptr,#0x03E8
036D 120100    1274            lcall   _waitms
0370           1275   ;        C:\Users\carso\Documents\1. School\0. Spring 2018\Elec 292\lab4\hr_monitor.c:265: printf("\x1b[2J"); // Clear screen using ANSI escape sequence.
0370 7440      1276            mov     a,#__str_2
0372 C0E0      1277            push    acc
0374 74C2      1278            mov     a,#(__str_2 >> 8)
0376 C0E0      1279            push    acc
0378 7480      1280            mov     a,#0x80
037A C0E0      1281            push    acc
037C 120100    1282            lcall   _printf
037F 1581      1283            dec     sp
0381 1581      1284            dec     sp
0383 1581      1285            dec     sp
0385           1286   ;        C:\Users\carso\Documents\1. School\0. Spring 2018\Elec 292\lab4\hr_monitor.c:270: __FILE__, __DATE__, __TIME__);
0385           1287   ;        C:\Users\carso\Documents\1. School\0. Spring 2018\Elec 292\lab4\hr_monitor.c:269: "Compiled: %s, %s\n\n",
0385 7400      1288            mov     a,#__str_6
0387 C0E0      1289            push    acc
0389 74C3      1290            mov     a,#(__str_6 >> 8)
038B C0E0      1291            push    acc
038D 7480      1292            mov     a,#0x80
038F C0E0      1293            push    acc
0391 7440      1294            mov     a,#__str_5
0393 C0E0      1295            push    acc
0395 74C3      1296            mov     a,#(__str_5 >> 8)
0397 C0E0      1297            push    acc
0399 7480      1298            mov     a,#0x80
039B C0E0      1299            push    acc
039D 7480      1300            mov     a,#__str_4
039F C0E0      1301            push    acc
03A1 74C3      1302            mov     a,#(__str_4 >> 8)
03A3 C0E0      1303            push    acc
03A5 7480      1304            mov     a,#0x80
03A7 C0E0      1305            push    acc
03A9 74C0      1306            mov     a,#__str_3
03AB C0E0      1307            push    acc
03AD 74C3      1308            mov     a,#(__str_3 >> 8)
03AF C0E0      1309            push    acc
03B1 7480      1310            mov     a,#0x80
03B3 C0E0      1311            push    acc
03B5 120100    1312            lcall   _printf
03B8 E581      1313            mov     a,sp
03BA 24F4      1314            add     a,#0xf4
03BC F581      1315            mov     sp,a
03BE           1316   ;        C:\Users\carso\Documents\1. School\0. Spring 2018\Elec 292\lab4\hr_monitor.c:273: while (1)
03BE           1317   L014033?:
03BE           1318   ;        C:\Users\carso\Documents\1. School\0. Spring 2018\Elec 292\lab4\hr_monitor.c:276: TL0=0; 
03BE 758A00    1319            mov     _TL0,#0x00
03C1           1320   ;        C:\Users\carso\Documents\1. School\0. Spring 2018\Elec 292\lab4\hr_monitor.c:277: TH0=0;
03C1 758C00    1321            mov     _TH0,#0x00
03C4           1322   ;        C:\Users\carso\Documents\1. School\0. Spring 2018\Elec 292\lab4\hr_monitor.c:278: TF0=0;
03C4 C28D      1323            clr     _TF0
03C6           1324   ;        C:\Users\carso\Documents\1. School\0. Spring 2018\Elec 292\lab4\hr_monitor.c:279: overflow_count=0;
03C6 751000    1325            mov     _overflow_count,#0x00
03C9           1326   ;        C:\Users\carso\Documents\1. School\0. Spring 2018\Elec 292\lab4\hr_monitor.c:282: while(input!=0); // Wait for the signal to be zero
03C9           1327   L014001?:
03C9 20A040    1328            jb      _P2_0,L014001?
03CC           1329   ;        C:\Users\carso\Documents\1. School\0. Spring 2018\Elec 292\lab4\hr_monitor.c:283: while(input!=1); // Wait for the signal to be one
03CC           1330   L014004?:
03CC 30A080    1331            jnb     _P2_0,L014004?
03CF           1332   ;        C:\Users\carso\Documents\1. School\0. Spring 2018\Elec 292\lab4\hr_monitor.c:285: TR0=1; // Start the timer
03CF D28C      1333            setb    _TR0
03D1           1334   ;        C:\Users\carso\Documents\1. School\0. Spring 2018\Elec 292\lab4\hr_monitor.c:286: while(input!=0) // Wait for the signal to be zero
03D1           1335   L014009?:
03D1 30A000    1336            jnb     _P2_0,L014014?
03D4           1337   ;        C:\Users\carso\Documents\1. School\0. Spring 2018\Elec 292\lab4\hr_monitor.c:288: if(TF0==1) // Did the 16-bit timer overflow?
03D4           1338   ;        C:\Users\carso\Documents\1. School\0. Spring 2018\Elec 292\lab4\hr_monitor.c:290: TF0=0;
03D4 108D40    1339            jbc     _TF0,L014059?
03D7 8001      1340            sjmp    L014009?
03D9           1341   L014059?:
03D9           1342   ;        C:\Users\carso\Documents\1. School\0. Spring 2018\Elec 292\lab4\hr_monitor.c:291: overflow_count++;
03D9 0510      1343            inc     _overflow_count
03DB           1344   ;        C:\Users\carso\Documents\1. School\0. Spring 2018\Elec 292\lab4\hr_monitor.c:294: while(input!=1) // Wait for the signal to be one
03DB 8001      1345            sjmp    L014009?
03DD           1346   L014014?:
03DD 20A080    1347            jb      _P2_0,L014016?
03E0           1348   ;        C:\Users\carso\Documents\1. School\0. Spring 2018\Elec 292\lab4\hr_monitor.c:296: if(TF0==1) // Did the 16-bit timer overflow?
03E0           1349   ;        C:\Users\carso\Documents\1. School\0. Spring 2018\Elec 292\lab4\hr_monitor.c:298: TF0=0;
03E0 108DC0    1350            jbc     _TF0,L014061?
03E3 8001      1351            sjmp    L014014?
03E5           1352   L014061?:
03E5           1353   ;        C:\Users\carso\Documents\1. School\0. Spring 2018\Elec 292\lab4\hr_monitor.c:299: overflow_count++;
03E5 0510      1354            inc     _overflow_count
03E7 8001      1355            sjmp    L014014?
03E9           1356   L014016?:
03E9           1357   ;        C:\Users\carso\Documents\1. School\0. Spring 2018\Elec 292\lab4\hr_monitor.c:302: TR0=0; // Stop timer 0, the 24-bit number [overflow_count-TH0-TL0] has the period!
03E9 C28C      1358            clr     _TR0
03EB           1359   ;        C:\Users\carso\Documents\1. School\0. Spring 2018\Elec 292\lab4\hr_monitor.c:303: period=(overflow_count*65536.0+TH0*256.0+TL0)*(12.0/SYSCLK);
03EB 851082    1360            mov     dpl,_overflow_count
03EE 120100    1361            lcall   ___uchar2fs
03F1 AF82      1362            mov     r7,dpl
03F3 AA83      1363            mov     r2,dph
03F5 ABF0      1364            mov     r3,b
03F7 FC        1365            mov     r4,a
03F8 C007      1366            push    ar7
03FA C002      1367            push    ar2
03FC C003      1368            push    ar3
03FE C004      1369            push    ar4
0400 900000    1370            mov     dptr,#0x0000
0403 75F080    1371            mov     b,#0x80
0406 7447      1372            mov     a,#0x47
0408 120100    1373            lcall   ___fsmul
040B AA82      1374            mov     r2,dpl
040D AB83      1375            mov     r3,dph
040F ACF0      1376            mov     r4,b
0411 FD        1377            mov     r5,a
0412 E581      1378            mov     a,sp
0414 24FC      1379            add     a,#0xfc
0416 F581      1380            mov     sp,a
0418 858C82    1381            mov     dpl,_TH0
041B C002      1382            push    ar2
041D C003      1383            push    ar3
041F C004      1384            push    ar4
0421 C005      1385            push    ar5
0423 120100    1386            lcall   ___uchar2fs
0426 AF82      1387            mov     r7,dpl
0428 AE83      1388            mov     r6,dph
042A A8F0      1389            mov     r0,b
042C F9        1390            mov     r1,a
042D C007      1391            push    ar7
042F C006      1392            push    ar6
0431 C000      1393            push    ar0
0433 C001      1394            push    ar1
0435 900000    1395            mov     dptr,#0x0000
0438 75F080    1396            mov     b,#0x80
043B 7443      1397            mov     a,#0x43
043D 120100    1398            lcall   ___fsmul
0440 AE82      1399            mov     r6,dpl
0442 AF83      1400            mov     r7,dph
0444 A8F0      1401            mov     r0,b
0446 F9        1402            mov     r1,a
0447 E581      1403            mov     a,sp
0449 24FC      1404            add     a,#0xfc
044B F581      1405            mov     sp,a
044D D005      1406            pop     ar5
044F D004      1407            pop     ar4
0451 D003      1408            pop     ar3
0453 D002      1409            pop     ar2
0455 C006      1410            push    ar6
0457 C007      1411            push    ar7
0459 C000      1412            push    ar0
045B C001      1413            push    ar1
045D 8A82      1414            mov     dpl,r2
045F 8B83      1415            mov     dph,r3
0461 8CF0      1416            mov     b,r4
0463 ED        1417            mov     a,r5
0464 120100    1418            lcall   ___fsadd
0467 AA82      1419            mov     r2,dpl
0469 AB83      1420            mov     r3,dph
046B ACF0      1421            mov     r4,b
046D FD        1422            mov     r5,a
046E E581      1423            mov     a,sp
0470 24FC      1424            add     a,#0xfc
0472 F581      1425            mov     sp,a
0474 AE8A      1426            mov     r6,_TL0
0476 7F00      1427            mov     r7,#0x00
0478 8E82      1428            mov     dpl,r6
047A 8F83      1429            mov     dph,r7
047C C002      1430            push    ar2
047E C003      1431            push    ar3
0480 C004      1432            push    ar4
0482 C005      1433            push    ar5
0484 120100    1434            lcall   ___sint2fs
0487 AE82      1435            mov     r6,dpl
0489 AF83      1436            mov     r7,dph
048B A8F0      1437            mov     r0,b
048D F9        1438            mov     r1,a
048E D005      1439            pop     ar5
0490 D004      1440            pop     ar4
0492 D003      1441            pop     ar3
0494 D002      1442            pop     ar2
0496 C006      1443            push    ar6
0498 C007      1444            push    ar7
049A C000      1445            push    ar0
049C C001      1446            push    ar1
049E 8A82      1447            mov     dpl,r2
04A0 8B83      1448            mov     dph,r3
04A2 8CF0      1449            mov     b,r4
04A4 ED        1450            mov     a,r5
04A5 120100    1451            lcall   ___fsadd
04A8 AA82      1452            mov     r2,dpl
04AA AB83      1453            mov     r3,dph
04AC ACF0      1454            mov     r4,b
04AE FD        1455            mov     r5,a
04AF E581      1456            mov     a,sp
04B1 24FC      1457            add     a,#0xfc
04B3 F581      1458            mov     sp,a
04B5 C002      1459            push    ar2
04B7 C003      1460            push    ar3
04B9 C004      1461            push    ar4
04BB C005      1462            push    ar5
04BD 90F4FC    1463            mov     dptr,#0xF4FC
04C0 75F032    1464            mov     b,#0x32
04C3 7434      1465            mov     a,#0x34
04C5 120100    1466            lcall   ___fsmul
04C8 858248    1467            mov     _main_period_1_52,dpl
04CB 858349    1468            mov     (_main_period_1_52 + 1),dph
04CE 85F04A    1469            mov     (_main_period_1_52 + 2),b
04D1 F54B      1470            mov     (_main_period_1_52 + 3),a
04D3 E581      1471            mov     a,sp
04D5 24FC      1472            add     a,#0xfc
04D7 F581      1473            mov     sp,a
04D9           1474   ;        C:\Users\carso\Documents\1. School\0. Spring 2018\Elec 292\lab4\hr_monitor.c:305: printf( "\rT=%f ms    ", period*1000.0);
04D9 C048      1475            push    _main_period_1_52
04DB C049      1476            push    (_main_period_1_52 + 1)
04DD C04A      1477            push    (_main_period_1_52 + 2)
04DF C04B      1478            push    (_main_period_1_52 + 3)
04E1 900000    1479            mov     dptr,#0x0000
04E4 75F07A    1480            mov     b,#0x7A
04E7 7444      1481            mov     a,#0x44
04E9 120100    1482            lcall   ___fsmul
04EC AE82      1483            mov     r6,dpl
04EE AF83      1484            mov     r7,dph
04F0 A8F0      1485            mov     r0,b
04F2 F9        1486            mov     r1,a
04F3 E581      1487            mov     a,sp
04F5 24FC      1488            add     a,#0xfc
04F7 F581      1489            mov     sp,a
04F9 C006      1490            push    ar6
04FB C007      1491            push    ar7
04FD C000      1492            push    ar0
04FF C001      1493            push    ar1
0501 7400      1494            mov     a,#__str_7
0503 C0E0      1495            push    acc
0505 74C7      1496            mov     a,#(__str_7 >> 8)
0507 C0E0      1497            push    acc
0509 7480      1498            mov     a,#0x80
050B C0E0      1499            push    acc
050D 120100    1500            lcall   _printf
0510 E581      1501            mov     a,sp
0512 24F9      1502            add     a,#0xf9
0514 F581      1503            mov     sp,a
0516           1504   ;        C:\Users\carso\Documents\1. School\0. Spring 2018\Elec 292\lab4\hr_monitor.c:307: bpm = 60.0/period;
0516 C048      1505            push    _main_period_1_52
0518 C049      1506            push    (_main_period_1_52 + 1)
051A C04A      1507            push    (_main_period_1_52 + 2)
051C C04B      1508            push    (_main_period_1_52 + 3)
051E 900000    1509            mov     dptr,#0x0000
0521 75F070    1510            mov     b,#0x70
0524 7442      1511            mov     a,#0x42
0526 120100    1512            lcall   ___fsdiv
0529 AE82      1513            mov     r6,dpl
052B AF83      1514            mov     r7,dph
052D A8F0      1515            mov     r0,b
052F F9        1516            mov     r1,a
0530 E581      1517            mov     a,sp
0532 24FC      1518            add     a,#0xfc
0534 F581      1519            mov     sp,a
0536           1520   ;        C:\Users\carso\Documents\1. School\0. Spring 2018\Elec 292\lab4\hr_monitor.c:309: if(!unstable)
0536 E5D8      1521            mov     a,_main_unstable_1_52
0538 45D9      1522            orl     a,(_main_unstable_1_52 + 1)
053A 6001      1523            jz      L014062?
053C 020100    1524            ljmp    L014022?
053F           1525   L014062?:
053F           1526   ;        C:\Users\carso\Documents\1. School\0. Spring 2018\Elec 292\lab4\hr_monitor.c:311: if(bpm >= 50 && bpm <= 130) 
053F C006      1527            push    ar6
0541 C007      1528            push    ar7
0543 C000      1529            push    ar0
0545 C001      1530            push    ar1
0547 E4        1531            clr     a
0548 C0E0      1532            push    acc
054A C0E0      1533            push    acc
054C 7448      1534            mov     a,#0x48
054E C0E0      1535            push    acc
0550 7442      1536            mov     a,#0x42
0552 C0E0      1537            push    acc
0554 8E82      1538            mov     dpl,r6
0556 8F83      1539            mov     dph,r7
0558 88F0      1540            mov     b,r0
055A E9        1541            mov     a,r1
055B 120100    1542            lcall   ___fslt
055E AA82      1543            mov     r2,dpl
0560 E581      1544            mov     a,sp
0562 24FC      1545            add     a,#0xfc
0564 F581      1546            mov     sp,a
0566 D001      1547            pop     ar1
0568 D000      1548            pop     ar0
056A D007      1549            pop     ar7
056C D006      1550            pop     ar6
056E EA        1551            mov     a,r2
056F 7001      1552            jnz     L014018?
0571 C006      1553            push    ar6
0573 C007      1554            push    ar7
0575 C000      1555            push    ar0
0577 C001      1556            push    ar1
0579 E4        1557            clr     a
057A C0E0      1558            push    acc
057C C0E0      1559            push    acc
057E 7402      1560            mov     a,#0x02
0580 C0E0      1561            push    acc
0582 7443      1562            mov     a,#0x43
0584 C0E0      1563            push    acc
0586 8E82      1564            mov     dpl,r6
0588 8F83      1565            mov     dph,r7
058A 88F0      1566            mov     b,r0
058C E9        1567            mov     a,r1
058D 120100    1568            lcall   ___fsgt
0590 AA82      1569            mov     r2,dpl
0592 E581      1570            mov     a,sp
0594 24FC      1571            add     a,#0xfc
0596 F581      1572            mov     sp,a
0598 D001      1573            pop     ar1
059A D000      1574            pop     ar0
059C D007      1575            pop     ar7
059E D006      1576            pop     ar6
05A0 EA        1577            mov     a,r2
05A1 7001      1578            jnz     L014018?
05A3           1579   ;        C:\Users\carso\Documents\1. School\0. Spring 2018\Elec 292\lab4\hr_monitor.c:312: {mem = bpm; unstable=1;}
05A3 8E88      1580            mov     _main_mem_1_52,r6
05A5 8F89      1581            mov     (_main_mem_1_52 + 1),r7
05A7 888A      1582            mov     (_main_mem_1_52 + 2),r0
05A9 898B      1583            mov     (_main_mem_1_52 + 3),r1
05AB 75D801    1584            mov     _main_unstable_1_52,#0x01
05AE E4        1585            clr     a
05AF F5D9      1586            mov     (_main_unstable_1_52 + 1),a
05B1 8001      1587            sjmp    L014022?
05B3           1588   L014018?:
05B3           1589   ;        C:\Users\carso\Documents\1. School\0. Spring 2018\Elec 292\lab4\hr_monitor.c:314: else {printf("\rNot stable yet"); 
05B3 74C0      1590            mov     a,#__str_8
05B5 C0E0      1591            push    acc
05B7 74C8      1592            mov     a,#(__str_8 >> 8)
05B9 C0E0      1593            push    acc
05BB 7480      1594            mov     a,#0x80
05BD C0E0      1595            push    acc
05BF 120100    1596            lcall   _printf
05C2 1581      1597            dec     sp
05C4 1581      1598            dec     sp
05C6 1581      1599            dec     sp
05C8           1600   ;        C:\Users\carso\Documents\1. School\0. Spring 2018\Elec 292\lab4\hr_monitor.c:315: LCDprint("HR Not Stable", 2, 1); continue;}
05C8 75D002    1601            mov     _LCDprint_PARM_2,#0x02
05CB D2F0      1602            setb    _LCDprint_PARM_3
05CD 90C900    1603            mov     dptr,#__str_9
05D0 75F080    1604            mov     b,#0x80
05D3 120100    1605            lcall   _LCDprint
05D6 020100    1606            ljmp    L014033?
05D9           1607   L014022?:
05D9           1608   ;        C:\Users\carso\Documents\1. School\0. Spring 2018\Elec 292\lab4\hr_monitor.c:319: if(bpm >= 50 && bpm <= 130 && ((bpm-mem) < 40 || (mem-bpm) < 40))
05D9 C006      1609            push    ar6
05DB C007      1610            push    ar7
05DD C000      1611            push    ar0
05DF C001      1612            push    ar1
05E1 E4        1613            clr     a
05E2 C0E0      1614            push    acc
05E4 C0E0      1615            push    acc
05E6 7448      1616            mov     a,#0x48
05E8 C0E0      1617            push    acc
05EA 7442      1618            mov     a,#0x42
05EC C0E0      1619            push    acc
05EE 8E82      1620            mov     dpl,r6
05F0 8F83      1621            mov     dph,r7
05F2 88F0      1622            mov     b,r0
05F4 E9        1623            mov     a,r1
05F5 120100    1624            lcall   ___fslt
05F8 AA82      1625            mov     r2,dpl
05FA E581      1626            mov     a,sp
05FC 24FC      1627            add     a,#0xfc
05FE F581      1628            mov     sp,a
0600 D001      1629            pop     ar1
0602 D000      1630            pop     ar0
0604 D007      1631            pop     ar7
0606 D006      1632            pop     ar6
0608 EA        1633            mov     a,r2
0609 6001      1634            jz      L014065?
060B 020100    1635            ljmp    L014024?
060E           1636   L014065?:
060E C006      1637            push    ar6
0610 C007      1638            push    ar7
0612 C000      1639            push    ar0
0614 C001      1640            push    ar1
0616 E4        1641            clr     a
0617 C0E0      1642            push    acc
0619 C0E0      1643            push    acc
061B 7402      1644            mov     a,#0x02
061D C0E0      1645            push    acc
061F 7443      1646            mov     a,#0x43
0621 C0E0      1647            push    acc
0623 8E82      1648            mov     dpl,r6
0625 8F83      1649            mov     dph,r7
0627 88F0      1650            mov     b,r0
0629 E9        1651            mov     a,r1
062A 120100    1652            lcall   ___fsgt
062D AA82      1653            mov     r2,dpl
062F E581      1654            mov     a,sp
0631 24FC      1655            add     a,#0xfc
0633 F581      1656            mov     sp,a
0635 D001      1657            pop     ar1
0637 D000      1658            pop     ar0
0639 D007      1659            pop     ar7
063B D006      1660            pop     ar6
063D EA        1661            mov     a,r2
063E 6001      1662            jz      L014066?
0640 020100    1663            ljmp    L014024?
0643           1664   L014066?:
0643 C006      1665            push    ar6
0645 C007      1666            push    ar7
0647 C000      1667            push    ar0
0649 C001      1668            push    ar1
064B C088      1669            push    _main_mem_1_52
064D C089      1670            push    (_main_mem_1_52 + 1)
064F C08A      1671            push    (_main_mem_1_52 + 2)
0651 C08B      1672            push    (_main_mem_1_52 + 3)
0653 8E82      1673            mov     dpl,r6
0655 8F83      1674            mov     dph,r7
0657 88F0      1675            mov     b,r0
0659 E9        1676            mov     a,r1
065A 120100    1677            lcall   ___fssub
065D AA82      1678            mov     r2,dpl
065F AB83      1679            mov     r3,dph
0661 ACF0      1680            mov     r4,b
0663 FD        1681            mov     r5,a
0664 E581      1682            mov     a,sp
0666 24FC      1683            add     a,#0xfc
0668 F581      1684            mov     sp,a
066A E4        1685            clr     a
066B C0E0      1686            push    acc
066D C0E0      1687            push    acc
066F 7420      1688            mov     a,#0x20
0671 C0E0      1689            push    acc
0673 7442      1690            mov     a,#0x42
0675 C0E0      1691            push    acc
0677 8A82      1692            mov     dpl,r2
0679 8B83      1693            mov     dph,r3
067B 8CF0      1694            mov     b,r4
067D ED        1695            mov     a,r5
067E 120100    1696            lcall   ___fslt
0681 AA82      1697            mov     r2,dpl
0683 E581      1698            mov     a,sp
0685 24FC      1699            add     a,#0xfc
0687 F581      1700            mov     sp,a
0689 D001      1701            pop     ar1
068B D000      1702            pop     ar0
068D D007      1703            pop     ar7
068F D006      1704            pop     ar6
0691 EA        1705            mov     a,r2
0692 7001      1706            jnz     L014023?
0694 C006      1707            push    ar6
0696 C007      1708            push    ar7
0698 C000      1709            push    ar0
069A C001      1710            push    ar1
069C C006      1711            push    ar6
069E C007      1712            push    ar7
06A0 C000      1713            push    ar0
06A2 C001      1714            push    ar1
06A4 858882    1715            mov     dpl,_main_mem_1_52
06A7 858983    1716            mov     dph,(_main_mem_1_52 + 1)
06AA 858AF0    1717            mov     b,(_main_mem_1_52 + 2)
06AD E58B      1718            mov     a,(_main_mem_1_52 + 3)
06AF 120100    1719            lcall   ___fssub
06B2 AA82      1720            mov     r2,dpl
06B4 AB83      1721            mov     r3,dph
06B6 ACF0      1722            mov     r4,b
06B8 FD        1723            mov     r5,a
06B9 E581      1724            mov     a,sp
06BB 24FC      1725            add     a,#0xfc
06BD F581      1726            mov     sp,a
06BF E4        1727            clr     a
06C0 C0E0      1728            push    acc
06C2 C0E0      1729            push    acc
06C4 7420      1730            mov     a,#0x20
06C6 C0E0      1731            push    acc
06C8 7442      1732            mov     a,#0x42
06CA C0E0      1733            push    acc
06CC 8A82      1734            mov     dpl,r2
06CE 8B83      1735            mov     dph,r3
06D0 8CF0      1736            mov     b,r4
06D2 ED        1737            mov     a,r5
06D3 120100    1738            lcall   ___fslt
06D6 AA82      1739            mov     r2,dpl
06D8 E581      1740            mov     a,sp
06DA 24FC      1741            add     a,#0xfc
06DC F581      1742            mov     sp,a
06DE D001      1743            pop     ar1
06E0 D000      1744            pop     ar0
06E2 D007      1745            pop     ar7
06E4 D006      1746            pop     ar6
06E6 EA        1747            mov     a,r2
06E7 6001      1748            jz      L014024?
06E9           1749   L014023?:
06E9           1750   ;        C:\Users\carso\Documents\1. School\0. Spring 2018\Elec 292\lab4\hr_monitor.c:321: mem = bpm;
06E9 8E88      1751            mov     _main_mem_1_52,r6
06EB 8F89      1752            mov     (_main_mem_1_52 + 1),r7
06ED 888A      1753            mov     (_main_mem_1_52 + 2),r0
06EF 898B      1754            mov     (_main_mem_1_52 + 3),r1
06F1 8001      1755            sjmp    L014025?
06F3           1756   L014024?:
06F3           1757   ;        C:\Users\carso\Documents\1. School\0. Spring 2018\Elec 292\lab4\hr_monitor.c:323: else bpm = mem;
06F3 AE88      1758            mov     r6,_main_mem_1_52
06F5 AF89      1759            mov     r7,(_main_mem_1_52 + 1)
06F7 A88A      1760            mov     r0,(_main_mem_1_52 + 2)
06F9 A98B      1761            mov     r1,(_main_mem_1_52 + 3)
06FB           1762   L014025?:
06FB           1763   ;        C:\Users\carso\Documents\1. School\0. Spring 2018\Elec 292\lab4\hr_monitor.c:326: bpm_int = (int) bpm;
06FB 8E82      1764            mov     dpl,r6
06FD 8F83      1765            mov     dph,r7
06FF 88F0      1766            mov     b,r0
0701 E9        1767            mov     a,r1
0702 120100    1768            lcall   ___fs2sint
0705 AA82      1769            mov     r2,dpl
0707 AB83      1770            mov     r3,dph
0709           1771   ;        C:\Users\carso\Documents\1. School\0. Spring 2018\Elec 292\lab4\hr_monitor.c:327: printf( "\rperiod=%fs    heart rate=%dbpm     %s" , period, bpm_int,bpm_string);
0709 C002      1772            push    ar2
070B C003      1773            push    ar3
070D C078      1774            push    _main_bpm_string_1_52
070F C079      1775            push    (_main_bpm_string_1_52 + 1)
0711 C07A      1776            push    (_main_bpm_string_1_52 + 2)
0713 C002      1777            push    ar2
0715 C003      1778            push    ar3
0717 C048      1779            push    _main_period_1_52
0719 C049      1780            push    (_main_period_1_52 + 1)
071B C04A      1781            push    (_main_period_1_52 + 2)
071D C04B      1782            push    (_main_period_1_52 + 3)
071F 7400      1783            mov     a,#__str_10
0721 C0E0      1784            push    acc
0723 74CB      1785            mov     a,#(__str_10 >> 8)
0725 C0E0      1786            push    acc
0727 7480      1787            mov     a,#0x80
0729 C0E0      1788            push    acc
072B 120100    1789            lcall   _printf
072E E581      1790            mov     a,sp
0730 24F4      1791            add     a,#0xf4
0732 F581      1792            mov     sp,a
0734 D003      1793            pop     ar3
0736 D002      1794            pop     ar2
0738           1795   ;        C:\Users\carso\Documents\1. School\0. Spring 2018\Elec 292\lab4\hr_monitor.c:331: while(bpm_int)
0738 E4        1796            clr     a
0739 F528      1797            mov     _main_count_1_52,a
073B F529      1798            mov     (_main_count_1_52 + 1),a
073D           1799   L014029?:
073D EA        1800            mov     a,r2
073E 4B        1801            orl     a,r3
073F 6001      1802            jz      L014031?
0741           1803   ;        C:\Users\carso\Documents\1. School\0. Spring 2018\Elec 292\lab4\hr_monitor.c:333: bpm_string[count] = 48+bpm_int%10;
0741 E528      1804            mov     a,_main_count_1_52
0743 2578      1805            add     a,_main_bpm_string_1_52
0745 FE        1806            mov     r6,a
0746 E529      1807            mov     a,(_main_count_1_52 + 1)
0748 3579      1808            addc    a,(_main_bpm_string_1_52 + 1)
074A FF        1809            mov     r7,a
074B A87A      1810            mov     r0,(_main_bpm_string_1_52 + 2)
074D 75000A    1811            mov     __modsint_PARM_2,#0x0A
0750 E4        1812            clr     a
0751 F501      1813            mov     (__modsint_PARM_2 + 1),a
0753 8A82      1814            mov     dpl,r2
0755 8B83      1815            mov     dph,r3
0757 C002      1816            push    ar2
0759 C003      1817            push    ar3
075B C006      1818            push    ar6
075D C007      1819            push    ar7
075F C000      1820            push    ar0
0761 120100    1821            lcall   __modsint
0764 A982      1822            mov     r1,dpl
0766 D000      1823            pop     ar0
0768 D007      1824            pop     ar7
076A D006      1825            pop     ar6
076C D003      1826            pop     ar3
076E D002      1827            pop     ar2
0770 7430      1828            mov     a,#0x30
0772 29        1829            add     a,r1
0773 8E82      1830            mov     dpl,r6
0775 8F83      1831            mov     dph,r7
0777 88F0      1832            mov     b,r0
0779 120100    1833            lcall   __gptrput
077C           1834   ;        C:\Users\carso\Documents\1. School\0. Spring 2018\Elec 292\lab4\hr_monitor.c:334: bpm_int /= 10;
077C 75000A    1835            mov     __divsint_PARM_2,#0x0A
077F E4        1836            clr     a
0780 F501      1837            mov     (__divsint_PARM_2 + 1),a
0782 8A82      1838            mov     dpl,r2
0784 8B83      1839            mov     dph,r3
0786 120100    1840            lcall   __divsint
0789 AA82      1841            mov     r2,dpl
078B AB83      1842            mov     r3,dph
078D           1843   ;        C:\Users\carso\Documents\1. School\0. Spring 2018\Elec 292\lab4\hr_monitor.c:335: count++;
078D 0528      1844            inc     _main_count_1_52
078F E4        1845            clr     a
0790 B52840    1846            cjne    a,_main_count_1_52,L014029?
0793 0529      1847            inc     (_main_count_1_52 + 1)
0795 8001      1848            sjmp    L014029?
0797           1849   L014031?:
0797           1850   ;        C:\Users\carso\Documents\1. School\0. Spring 2018\Elec 292\lab4\hr_monitor.c:337: bpm_string[count]='\0';
0797 E528      1851            mov     a,_main_count_1_52
0799 2578      1852            add     a,_main_bpm_string_1_52
079B FA        1853            mov     r2,a
079C E529      1854            mov     a,(_main_count_1_52 + 1)
079E 3579      1855            addc    a,(_main_bpm_string_1_52 + 1)
07A0 FB        1856            mov     r3,a
07A1 AC7A      1857            mov     r4,(_main_bpm_string_1_52 + 2)
07A3 8A82      1858            mov     dpl,r2
07A5 8B83      1859            mov     dph,r3
07A7 8CF0      1860            mov     b,r4
07A9 E4        1861            clr     a
07AA 120100    1862            lcall   __gptrput
07AD           1863   ;        C:\Users\carso\Documents\1. School\0. Spring 2018\Elec 292\lab4\hr_monitor.c:339: LCDprint_inv(bpm_string, 2, 1);
07AD 758002    1864            mov     _LCDprint_inv_PARM_2,#0x02
07B0 D2A0      1865            setb    _LCDprint_inv_PARM_3
07B2 857882    1866            mov     dpl,_main_bpm_string_1_52
07B5 857983    1867            mov     dph,(_main_bpm_string_1_52 + 1)
07B8 857AF0    1868            mov     b,(_main_bpm_string_1_52 + 2)
07BB 120100    1869            lcall   _LCDprint_inv
07BE 020100    1870            ljmp    L014033?
07C1           1871            rseg R_CSEG
07C1           1872   
0000           1873            rseg R_XINIT
0000           1874   
0000           1875            rseg R_CONST
0000           1876   __str_0:
0000 506C6163  1877            db 'Place clip on   '
     6520636C
     6970206F
     6E202020
0010 00        1878            db 0x00
0011           1879   __str_1:
0011 52696E67  1880            db 'Ring fingernail'
     2066696E
     6765726E
     61696C
0020 00        1881            db 0x00
0021           1882   __str_2:
0021 1B        1883            db 0x1B
0022 5B324A    1884            db '[2J'
0025 00        1885            db 0x00
0026           1886   __str_3:
0026 45464D38  1887            db 'EFM8 Period measurement at pin P2.0 using Timer 0.'
     20506572
     696F6420
     6D656173
     7572656D
     656E7420
     61742070
     696E2050
     322E3020
     7573696E
     67205469
     6D657220
     302E
0058 0A        1888            db 0x0A
0059 46696C65  1889            db 'File: %s'
     3A202573
0061 0A        1890            db 0x0A
0062 436F6D70  1891            db 'Compiled: %s, %s'
     696C6564
     3A202573
     2C202573
0072 0A        1892            db 0x0A
0073 0A        1893            db 0x0A
0074 00        1894            db 0x00
0075           1895   __str_4:
0075 433A      1896            db 'C:'
0077 5C        1897            db 0x5C
0078 55736572  1898            db 'Users'
     73
007D 5C        1899            db 0x5C
007E 63617273  1900            db 'carso'
     6F
0083 5C        1901            db 0x5C
0084 446F6375  1902            db 'Documents'
     6D656E74
     73
008D 5C        1903            db 0x5C
008E 312E2053  1904            db '1. School'
     63686F6F
     6C
0097 5C        1905            db 0x5C
0098 302E2053  1906            db '0. Spring 2018'
     7072696E
     67203230
     3138
00A6 5C        1907            db 0x5C
00A7 456C6563  1908            db 'Elec 292'
     20323932
00AF 5C        1909            db 0x5C
00B0 6C        1910            db 'l'
00B1 616234    1911            db 'ab4'
00B4 5C        1912            db 0x5C
00B5 68725F6D  1913            db 'hr_monitor.c'
     6F6E6974
     6F722E63
00C1 00        1914            db 0x00
00C2           1915   __str_5:
00C2 46656220  1916            db 'Feb 28 2018'
     32382032
     303138
00CD 00        1917            db 0x00
00CE           1918   __str_6:
00CE 32303A32  1919            db '20:27:42'
     373A3432
00D6 00        1920            db 0x00
00D7           1921   __str_7:
00D7 0D        1922            db 0x0D
00D8 543D2566  1923            db 'T=%f ms    '
     206D7320
     202020
00E3 00        1924            db 0x00
00E4           1925   __str_8:
00E4 0D        1926            db 0x0D
00E5 4E6F7420  1927            db 'Not stable yet'
     73746162
     6C652079
     6574
00F3 00        1928            db 0x00
00F4           1929   __str_9:
00F4 4852204E  1930            db 'HR Not Stable'
     6F742053
     7461626C
     65
0101 00        1931            db 0x00
0102           1932   __str_10:
0102 0D        1933            db 0x0D
0103 70657269  1934            db 'period=%fs    heart rate=%dbpm'
     6F643D25
     66732020
     20206865
     61727420
     72617465
     3D256462
     706D
0121 09        1935            db 0x09
0122 2573      1936            db '%s'
0124 00        1937            db 0x00
0125           1938   
0003           1939            CSEG
0003           1940   
0003           1941   end
